
Hyperlink_MB_W6100_Library.elf:     file format elf32-littlearm

Sections:
Idx Name          Size      VMA       LMA       File off  Algn
  0 .isr_vector   00000188  08000000  08000000  00010000  2**0
                  CONTENTS, ALLOC, LOAD, READONLY, DATA
  1 .text         00001160  08000188  08000188  00010188  2**2
                  CONTENTS, ALLOC, LOAD, READONLY, CODE
  2 .rodata       00000040  080012e8  080012e8  000112e8  2**2
                  CONTENTS, ALLOC, LOAD, READONLY, DATA
  3 .ARM.extab    00000000  08001328  08001328  00011330  2**0
                  CONTENTS
  4 .ARM          00000000  08001328  08001328  00011330  2**0
                  CONTENTS
  5 .preinit_array 00000000  08001328  08001330  00011330  2**0
                  CONTENTS, ALLOC, LOAD, DATA
  6 .init_array   00000004  08001328  08001328  00011328  2**2
                  CONTENTS, ALLOC, LOAD, DATA
  7 .fini_array   00000004  0800132c  0800132c  0001132c  2**2
                  CONTENTS, ALLOC, LOAD, DATA
  8 .data         00000000  20000000  20000000  00011330  2**0
                  CONTENTS, ALLOC, LOAD, DATA
  9 .bss          00000034  20000000  08001330  00020000  2**2
                  ALLOC
 10 ._user_heap_stack 00000604  20000034  08001330  00020034  2**0
                  ALLOC
 11 .ARM.attributes 00000030  00000000  00000000  00011330  2**0
                  CONTENTS, READONLY
 12 .debug_info   000041c0  00000000  00000000  00011360  2**0
                  CONTENTS, READONLY, DEBUGGING
 13 .debug_abbrev 00000a29  00000000  00000000  00015520  2**0
                  CONTENTS, READONLY, DEBUGGING
 14 .debug_aranges 00000168  00000000  00000000  00015f50  2**3
                  CONTENTS, READONLY, DEBUGGING
 15 .debug_ranges 00000110  00000000  00000000  000160b8  2**3
                  CONTENTS, READONLY, DEBUGGING
 16 .debug_macro  00018c68  00000000  00000000  000161c8  2**0
                  CONTENTS, READONLY, DEBUGGING
 17 .debug_line   0000222e  00000000  00000000  0002ee30  2**0
                  CONTENTS, READONLY, DEBUGGING
 18 .debug_str    000839ab  00000000  00000000  0003105e  2**0
                  CONTENTS, READONLY, DEBUGGING
 19 .comment      0000007b  00000000  00000000  000b4a09  2**0
                  CONTENTS, READONLY
 20 .debug_frame  00000464  00000000  00000000  000b4a84  2**2
                  CONTENTS, READONLY, DEBUGGING

Disassembly of section .text:

08000188 <__do_global_dtors_aux>:
 8000188:	b510      	push	{r4, lr}
 800018a:	4c05      	ldr	r4, [pc, #20]	; (80001a0 <__do_global_dtors_aux+0x18>)
 800018c:	7823      	ldrb	r3, [r4, #0]
 800018e:	b933      	cbnz	r3, 800019e <__do_global_dtors_aux+0x16>
 8000190:	4b04      	ldr	r3, [pc, #16]	; (80001a4 <__do_global_dtors_aux+0x1c>)
 8000192:	b113      	cbz	r3, 800019a <__do_global_dtors_aux+0x12>
 8000194:	4804      	ldr	r0, [pc, #16]	; (80001a8 <__do_global_dtors_aux+0x20>)
 8000196:	f3af 8000 	nop.w
 800019a:	2301      	movs	r3, #1
 800019c:	7023      	strb	r3, [r4, #0]
 800019e:	bd10      	pop	{r4, pc}
 80001a0:	20000000 	.word	0x20000000
 80001a4:	00000000 	.word	0x00000000
 80001a8:	080012d0 	.word	0x080012d0

080001ac <frame_dummy>:
 80001ac:	b508      	push	{r3, lr}
 80001ae:	4b03      	ldr	r3, [pc, #12]	; (80001bc <frame_dummy+0x10>)
 80001b0:	b11b      	cbz	r3, 80001ba <frame_dummy+0xe>
 80001b2:	4903      	ldr	r1, [pc, #12]	; (80001c0 <frame_dummy+0x14>)
 80001b4:	4803      	ldr	r0, [pc, #12]	; (80001c4 <frame_dummy+0x18>)
 80001b6:	f3af 8000 	nop.w
 80001ba:	bd08      	pop	{r3, pc}
 80001bc:	00000000 	.word	0x00000000
 80001c0:	20000004 	.word	0x20000004
 80001c4:	080012d0 	.word	0x080012d0

080001c8 <__NVIC_EnableIRQ>:
  \details Enables a device specific interrupt in the NVIC interrupt controller.
  \param [in]      IRQn  Device specific interrupt number.
  \note    IRQn must not be negative.
 */
__STATIC_INLINE void __NVIC_EnableIRQ(IRQn_Type IRQn)
{
 80001c8:	b480      	push	{r7}
 80001ca:	b083      	sub	sp, #12
 80001cc:	af00      	add	r7, sp, #0
 80001ce:	4603      	mov	r3, r0
 80001d0:	71fb      	strb	r3, [r7, #7]
  if ((int32_t)(IRQn) >= 0)
 80001d2:	f997 3007 	ldrsb.w	r3, [r7, #7]
 80001d6:	2b00      	cmp	r3, #0
 80001d8:	db0b      	blt.n	80001f2 <__NVIC_EnableIRQ+0x2a>
  {
    NVIC->ISER[(((uint32_t)IRQn) >> 5UL)] = (uint32_t)(1UL << (((uint32_t)IRQn) & 0x1FUL));
 80001da:	79fb      	ldrb	r3, [r7, #7]
 80001dc:	f003 021f 	and.w	r2, r3, #31
 80001e0:	4907      	ldr	r1, [pc, #28]	; (8000200 <__NVIC_EnableIRQ+0x38>)
 80001e2:	f997 3007 	ldrsb.w	r3, [r7, #7]
 80001e6:	095b      	lsrs	r3, r3, #5
 80001e8:	2001      	movs	r0, #1
 80001ea:	fa00 f202 	lsl.w	r2, r0, r2
 80001ee:	f841 2023 	str.w	r2, [r1, r3, lsl #2]
  }
}
 80001f2:	bf00      	nop
 80001f4:	370c      	adds	r7, #12
 80001f6:	46bd      	mov	sp, r7
 80001f8:	f85d 7b04 	ldr.w	r7, [sp], #4
 80001fc:	4770      	bx	lr
 80001fe:	bf00      	nop
 8000200:	e000e100 	.word	0xe000e100

08000204 <CanInit>:
 */

#include "can.h"


void CanInit(void) {
 8000204:	b580      	push	{r7, lr}
 8000206:	af00      	add	r7, sp, #0

	// *** Pin configuration and remap assignment *** //
	RCC->APB1ENR |= RCC_APB1ENR_CAN1EN;		// Enable CAN 1 CLK
 8000208:	4b1a      	ldr	r3, [pc, #104]	; (8000274 <CanInit+0x70>)
 800020a:	6c1b      	ldr	r3, [r3, #64]	; 0x40
 800020c:	4a19      	ldr	r2, [pc, #100]	; (8000274 <CanInit+0x70>)
 800020e:	f043 7300 	orr.w	r3, r3, #33554432	; 0x2000000
 8000212:	6413      	str	r3, [r2, #64]	; 0x40

	GPIOB->MODER |= GPIO_MODER_MODE8_1 | GPIO_MODER_MODE9_1;	// PB8 and PB9 Alternative Function
 8000214:	4b18      	ldr	r3, [pc, #96]	; (8000278 <CanInit+0x74>)
 8000216:	681b      	ldr	r3, [r3, #0]
 8000218:	4a17      	ldr	r2, [pc, #92]	; (8000278 <CanInit+0x74>)
 800021a:	f443 2320 	orr.w	r3, r3, #655360	; 0xa0000
 800021e:	6013      	str	r3, [r2, #0]
	GPIOB->AFR[1] |= GPIO_AFRH_AFRH0_3 | GPIO_AFRH_AFRH0_0 | GPIO_AFRH_AFRH1_0 | GPIO_AFRH_AFRH1_3;		// Alternative function mapped to CAN1_Tx and CAN1_Rx
 8000220:	4b15      	ldr	r3, [pc, #84]	; (8000278 <CanInit+0x74>)
 8000222:	6a5b      	ldr	r3, [r3, #36]	; 0x24
 8000224:	4a14      	ldr	r2, [pc, #80]	; (8000278 <CanInit+0x74>)
 8000226:	f043 0399 	orr.w	r3, r3, #153	; 0x99
 800022a:	6253      	str	r3, [r2, #36]	; 0x24

	CAN1->MCR |= CAN_MCR_INRQ;			// Initialisation mode on
 800022c:	4b13      	ldr	r3, [pc, #76]	; (800027c <CanInit+0x78>)
 800022e:	681b      	ldr	r3, [r3, #0]
 8000230:	4a12      	ldr	r2, [pc, #72]	; (800027c <CanInit+0x78>)
 8000232:	f043 0301 	orr.w	r3, r3, #1
 8000236:	6013      	str	r3, [r2, #0]

	// *** CAN Test Mode *** //
//	CAN1->BTR |= CAN_BTR_LBKM;			// Loopback mode enabled (For Debug purposes)
	// ********************* //

	NVIC_EnableIRQ(CAN1_TX_IRQn);
 8000238:	2013      	movs	r0, #19
 800023a:	f7ff ffc5 	bl	80001c8 <__NVIC_EnableIRQ>
	NVIC_EnableIRQ(CAN1_RX0_IRQn);
 800023e:	2014      	movs	r0, #20
 8000240:	f7ff ffc2 	bl	80001c8 <__NVIC_EnableIRQ>


	CAN1->MCR &= ~CAN_MCR_INRQ;			// Initialisation mode off
 8000244:	4b0d      	ldr	r3, [pc, #52]	; (800027c <CanInit+0x78>)
 8000246:	681b      	ldr	r3, [r3, #0]
 8000248:	4a0c      	ldr	r2, [pc, #48]	; (800027c <CanInit+0x78>)
 800024a:	f023 0301 	bic.w	r3, r3, #1
 800024e:	6013      	str	r3, [r2, #0]
	while (CAN1->MSR & CAN_MCR_INRQ);
 8000250:	bf00      	nop
 8000252:	4b0a      	ldr	r3, [pc, #40]	; (800027c <CanInit+0x78>)
 8000254:	685b      	ldr	r3, [r3, #4]
 8000256:	f003 0301 	and.w	r3, r3, #1
 800025a:	2b00      	cmp	r3, #0
 800025c:	d1f9      	bne.n	8000252 <CanInit+0x4e>

	CAN1->BTR = 0x001c0001;				// CAN Bitrate: 2010000 (data for the logic analyser debug purposes)
 800025e:	4b07      	ldr	r3, [pc, #28]	; (800027c <CanInit+0x78>)
 8000260:	4a07      	ldr	r2, [pc, #28]	; (8000280 <CanInit+0x7c>)
 8000262:	61da      	str	r2, [r3, #28]

	CAN1->MCR &= ~CAN_MCR_SLEEP;
 8000264:	4b05      	ldr	r3, [pc, #20]	; (800027c <CanInit+0x78>)
 8000266:	681b      	ldr	r3, [r3, #0]
 8000268:	4a04      	ldr	r2, [pc, #16]	; (800027c <CanInit+0x78>)
 800026a:	f023 0302 	bic.w	r3, r3, #2
 800026e:	6013      	str	r3, [r2, #0]


}
 8000270:	bf00      	nop
 8000272:	bd80      	pop	{r7, pc}
 8000274:	40023800 	.word	0x40023800
 8000278:	40020400 	.word	0x40020400
 800027c:	40006400 	.word	0x40006400
 8000280:	001c0001 	.word	0x001c0001

08000284 <Can_Tx_Msg>:


void Can_Tx_Msg(CAN_MESSAGE * msg) {
 8000284:	b480      	push	{r7}
 8000286:	b083      	sub	sp, #12
 8000288:	af00      	add	r7, sp, #0
 800028a:	6078      	str	r0, [r7, #4]

	CAN1->sTxMailBox[0].TIR = 0;		// Empty TIR register
 800028c:	4b3c      	ldr	r3, [pc, #240]	; (8000380 <Can_Tx_Msg+0xfc>)
 800028e:	2200      	movs	r2, #0
 8000290:	f8c3 2180 	str.w	r2, [r3, #384]	; 0x180

	if(msg->format == STANDARD_FORMAT)	{
 8000294:	687b      	ldr	r3, [r7, #4]
 8000296:	691b      	ldr	r3, [r3, #16]
 8000298:	2b00      	cmp	r3, #0
 800029a:	d10a      	bne.n	80002b2 <Can_Tx_Msg+0x2e>
		CAN1->sTxMailBox[0].TIR |= (u_int) (msg->id << 21) | CAN_ID_STD;
 800029c:	4b38      	ldr	r3, [pc, #224]	; (8000380 <Can_Tx_Msg+0xfc>)
 800029e:	f8d3 2180 	ldr.w	r2, [r3, #384]	; 0x180
 80002a2:	687b      	ldr	r3, [r7, #4]
 80002a4:	681b      	ldr	r3, [r3, #0]
 80002a6:	055b      	lsls	r3, r3, #21
 80002a8:	4935      	ldr	r1, [pc, #212]	; (8000380 <Can_Tx_Msg+0xfc>)
 80002aa:	4313      	orrs	r3, r2
 80002ac:	f8c1 3180 	str.w	r3, [r1, #384]	; 0x180
 80002b0:	e009      	b.n	80002c6 <Can_Tx_Msg+0x42>
	} else {
		CAN1->sTxMailBox[0].TIR |= (u_int) (msg->id << 3) | CAN_ID_EXT;
 80002b2:	4b33      	ldr	r3, [pc, #204]	; (8000380 <Can_Tx_Msg+0xfc>)
 80002b4:	f8d3 2180 	ldr.w	r2, [r3, #384]	; 0x180
 80002b8:	687b      	ldr	r3, [r7, #4]
 80002ba:	681b      	ldr	r3, [r3, #0]
 80002bc:	00db      	lsls	r3, r3, #3
 80002be:	4930      	ldr	r1, [pc, #192]	; (8000380 <Can_Tx_Msg+0xfc>)
 80002c0:	4313      	orrs	r3, r2
 80002c2:	f8c1 3180 	str.w	r3, [r1, #384]	; 0x180
	}

	if (msg->type == DATA_FRAME)  {                 // DATA FRAME
 80002c6:	687b      	ldr	r3, [r7, #4]
 80002c8:	695b      	ldr	r3, [r3, #20]
 80002ca:	2b00      	cmp	r3, #0
 80002cc:	d106      	bne.n	80002dc <Can_Tx_Msg+0x58>
	    CAN1->sTxMailBox[0].TIR |= CAN_RTR_DATA;
 80002ce:	4b2c      	ldr	r3, [pc, #176]	; (8000380 <Can_Tx_Msg+0xfc>)
 80002d0:	4a2b      	ldr	r2, [pc, #172]	; (8000380 <Can_Tx_Msg+0xfc>)
 80002d2:	f8d3 3180 	ldr.w	r3, [r3, #384]	; 0x180
 80002d6:	f8c2 3180 	str.w	r3, [r2, #384]	; 0x180
 80002da:	e005      	b.n	80002e8 <Can_Tx_Msg+0x64>
	} else {                                        // REMOTE FRAME
	    CAN1->sTxMailBox[0].TIR |= CAN_RTR_REMOTE;
 80002dc:	4b28      	ldr	r3, [pc, #160]	; (8000380 <Can_Tx_Msg+0xfc>)
 80002de:	4a28      	ldr	r2, [pc, #160]	; (8000380 <Can_Tx_Msg+0xfc>)
 80002e0:	f8d3 3180 	ldr.w	r3, [r3, #384]	; 0x180
 80002e4:	f8c2 3180 	str.w	r3, [r2, #384]	; 0x180
	}

	CAN1->sTxMailBox[0].TDLR = (((u_int)msg->data[3] << 24) |
 80002e8:	687b      	ldr	r3, [r7, #4]
 80002ea:	79db      	ldrb	r3, [r3, #7]
 80002ec:	061a      	lsls	r2, r3, #24
	                          ((u_int)msg->data[2] << 16) |
 80002ee:	687b      	ldr	r3, [r7, #4]
 80002f0:	799b      	ldrb	r3, [r3, #6]
 80002f2:	041b      	lsls	r3, r3, #16
	CAN1->sTxMailBox[0].TDLR = (((u_int)msg->data[3] << 24) |
 80002f4:	431a      	orrs	r2, r3
	                          ((u_int)msg->data[1] <<  8) |
 80002f6:	687b      	ldr	r3, [r7, #4]
 80002f8:	795b      	ldrb	r3, [r3, #5]
 80002fa:	021b      	lsls	r3, r3, #8
	                          ((u_int)msg->data[2] << 16) |
 80002fc:	4313      	orrs	r3, r2
	                          ((u_int)msg->data[0]));
 80002fe:	687a      	ldr	r2, [r7, #4]
 8000300:	7912      	ldrb	r2, [r2, #4]
 8000302:	4611      	mov	r1, r2
	CAN1->sTxMailBox[0].TDLR = (((u_int)msg->data[3] << 24) |
 8000304:	4a1e      	ldr	r2, [pc, #120]	; (8000380 <Can_Tx_Msg+0xfc>)
	                          ((u_int)msg->data[1] <<  8) |
 8000306:	430b      	orrs	r3, r1
	CAN1->sTxMailBox[0].TDLR = (((u_int)msg->data[3] << 24) |
 8000308:	f8c2 3188 	str.w	r3, [r2, #392]	; 0x188
	CAN1->sTxMailBox[0].TDHR = (((u_int)msg->data[7] << 24) |
 800030c:	687b      	ldr	r3, [r7, #4]
 800030e:	7adb      	ldrb	r3, [r3, #11]
 8000310:	061a      	lsls	r2, r3, #24
	                          ((u_int)msg->data[6] << 16) |
 8000312:	687b      	ldr	r3, [r7, #4]
 8000314:	7a9b      	ldrb	r3, [r3, #10]
 8000316:	041b      	lsls	r3, r3, #16
	CAN1->sTxMailBox[0].TDHR = (((u_int)msg->data[7] << 24) |
 8000318:	431a      	orrs	r2, r3
	                          ((u_int)msg->data[5] <<  8) |
 800031a:	687b      	ldr	r3, [r7, #4]
 800031c:	7a5b      	ldrb	r3, [r3, #9]
 800031e:	021b      	lsls	r3, r3, #8
	                          ((u_int)msg->data[6] << 16) |
 8000320:	4313      	orrs	r3, r2
	                          ((u_int)msg->data[4]));
 8000322:	687a      	ldr	r2, [r7, #4]
 8000324:	7a12      	ldrb	r2, [r2, #8]
 8000326:	4611      	mov	r1, r2
	CAN1->sTxMailBox[0].TDHR = (((u_int)msg->data[7] << 24) |
 8000328:	4a15      	ldr	r2, [pc, #84]	; (8000380 <Can_Tx_Msg+0xfc>)
	                          ((u_int)msg->data[5] <<  8) |
 800032a:	430b      	orrs	r3, r1
	CAN1->sTxMailBox[0].TDHR = (((u_int)msg->data[7] << 24) |
 800032c:	f8c2 318c 	str.w	r3, [r2, #396]	; 0x18c

	CAN1->sTxMailBox[0].TDTR &= ~CAN_TDT1R_DLC;
 8000330:	4b13      	ldr	r3, [pc, #76]	; (8000380 <Can_Tx_Msg+0xfc>)
 8000332:	f8d3 3184 	ldr.w	r3, [r3, #388]	; 0x184
 8000336:	4a12      	ldr	r2, [pc, #72]	; (8000380 <Can_Tx_Msg+0xfc>)
 8000338:	f023 030f 	bic.w	r3, r3, #15
 800033c:	f8c2 3184 	str.w	r3, [r2, #388]	; 0x184
	CAN1->sTxMailBox[0].TDTR |=  (msg->len & CAN_TDT0R_DLC);
 8000340:	4b0f      	ldr	r3, [pc, #60]	; (8000380 <Can_Tx_Msg+0xfc>)
 8000342:	f8d3 2184 	ldr.w	r2, [r3, #388]	; 0x184
 8000346:	687b      	ldr	r3, [r7, #4]
 8000348:	68db      	ldr	r3, [r3, #12]
 800034a:	f003 030f 	and.w	r3, r3, #15
 800034e:	490c      	ldr	r1, [pc, #48]	; (8000380 <Can_Tx_Msg+0xfc>)
 8000350:	4313      	orrs	r3, r2
 8000352:	f8c1 3184 	str.w	r3, [r1, #388]	; 0x184

	CAN1->IER |= CAN_IER_TMEIE;                      // enable  TME interrupt
 8000356:	4b0a      	ldr	r3, [pc, #40]	; (8000380 <Can_Tx_Msg+0xfc>)
 8000358:	695b      	ldr	r3, [r3, #20]
 800035a:	4a09      	ldr	r2, [pc, #36]	; (8000380 <Can_Tx_Msg+0xfc>)
 800035c:	f043 0301 	orr.w	r3, r3, #1
 8000360:	6153      	str	r3, [r2, #20]
	CAN1->sTxMailBox[0].TIR |=  CAN_TI0R_TXRQ;       // transmit message
 8000362:	4b07      	ldr	r3, [pc, #28]	; (8000380 <Can_Tx_Msg+0xfc>)
 8000364:	f8d3 3180 	ldr.w	r3, [r3, #384]	; 0x180
 8000368:	4a05      	ldr	r2, [pc, #20]	; (8000380 <Can_Tx_Msg+0xfc>)
 800036a:	f043 0301 	orr.w	r3, r3, #1
 800036e:	f8c2 3180 	str.w	r3, [r2, #384]	; 0x180

}
 8000372:	bf00      	nop
 8000374:	370c      	adds	r7, #12
 8000376:	46bd      	mov	sp, r7
 8000378:	f85d 7b04 	ldr.w	r7, [sp], #4
 800037c:	4770      	bx	lr
 800037e:	bf00      	nop
 8000380:	40006400 	.word	0x40006400

08000384 <Can_Rx_Msg>:


void Can_Rx_Msg(CAN_MESSAGE * msg) {
 8000384:	b480      	push	{r7}
 8000386:	b083      	sub	sp, #12
 8000388:	af00      	add	r7, sp, #0
 800038a:	6078      	str	r0, [r7, #4]

	if ((CAN1->sFIFOMailBox[0].RIR & CAN_ID_EXT) == 0) { // Standard ID
 800038c:	4b2e      	ldr	r3, [pc, #184]	; (8000448 <Can_Rx_Msg+0xc4>)
 800038e:	f8d3 31b0 	ldr.w	r3, [r3, #432]	; 0x1b0
	    msg->format = STANDARD_FORMAT;
 8000392:	687b      	ldr	r3, [r7, #4]
 8000394:	2200      	movs	r2, #0
 8000396:	611a      	str	r2, [r3, #16]
	    msg->id     = (uint32_t)0x000007FF & (CAN1->sFIFOMailBox[0].RIR >> 21);
 8000398:	4b2b      	ldr	r3, [pc, #172]	; (8000448 <Can_Rx_Msg+0xc4>)
 800039a:	f8d3 31b0 	ldr.w	r3, [r3, #432]	; 0x1b0
 800039e:	0d5b      	lsrs	r3, r3, #21
 80003a0:	f3c3 020a 	ubfx	r2, r3, #0, #11
 80003a4:	687b      	ldr	r3, [r7, #4]
 80003a6:	601a      	str	r2, [r3, #0]
	  }  else  {                                          // Extended ID
	    msg->format = EXTENDED_FORMAT;
	    msg->id     = (uint32_t)0x0003FFFF & (CAN1->sFIFOMailBox[0].RIR >> 3);
	  }
	                                                  // Read type information
	  if ((CAN1->sFIFOMailBox[0].RIR & CAN_RTR_REMOTE) == 0) {
 80003a8:	4b27      	ldr	r3, [pc, #156]	; (8000448 <Can_Rx_Msg+0xc4>)
 80003aa:	f8d3 31b0 	ldr.w	r3, [r3, #432]	; 0x1b0
	    msg->type =   DATA_FRAME;                     // DATA   FRAME
 80003ae:	687b      	ldr	r3, [r7, #4]
 80003b0:	2200      	movs	r2, #0
 80003b2:	615a      	str	r2, [r3, #20]
	  }  else  {
	    msg->type = REMOTE_FRAME;                     // REMOTE FRAME
	  }

	  msg->len = (char)0x0000000F & CAN1->sFIFOMailBox[0].RDTR;
 80003b4:	4b24      	ldr	r3, [pc, #144]	; (8000448 <Can_Rx_Msg+0xc4>)
 80003b6:	f8d3 31b4 	ldr.w	r3, [r3, #436]	; 0x1b4
 80003ba:	f003 020f 	and.w	r2, r3, #15
 80003be:	687b      	ldr	r3, [r7, #4]
 80003c0:	60da      	str	r2, [r3, #12]
	                                                    // Read data
	  msg->data[0] = (u_int)0x000000FF & (CAN1->sFIFOMailBox[0].RDLR);
 80003c2:	4b21      	ldr	r3, [pc, #132]	; (8000448 <Can_Rx_Msg+0xc4>)
 80003c4:	f8d3 31b8 	ldr.w	r3, [r3, #440]	; 0x1b8
 80003c8:	b2da      	uxtb	r2, r3
 80003ca:	687b      	ldr	r3, [r7, #4]
 80003cc:	711a      	strb	r2, [r3, #4]
	  msg->data[1] = (u_int)0x000000FF & (CAN1->sFIFOMailBox[0].RDLR >> 8);
 80003ce:	4b1e      	ldr	r3, [pc, #120]	; (8000448 <Can_Rx_Msg+0xc4>)
 80003d0:	f8d3 31b8 	ldr.w	r3, [r3, #440]	; 0x1b8
 80003d4:	0a1b      	lsrs	r3, r3, #8
 80003d6:	b2da      	uxtb	r2, r3
 80003d8:	687b      	ldr	r3, [r7, #4]
 80003da:	715a      	strb	r2, [r3, #5]
	  msg->data[2] = (u_int)0x000000FF & (CAN1->sFIFOMailBox[0].RDLR >> 16);
 80003dc:	4b1a      	ldr	r3, [pc, #104]	; (8000448 <Can_Rx_Msg+0xc4>)
 80003de:	f8d3 31b8 	ldr.w	r3, [r3, #440]	; 0x1b8
 80003e2:	0c1b      	lsrs	r3, r3, #16
 80003e4:	b2da      	uxtb	r2, r3
 80003e6:	687b      	ldr	r3, [r7, #4]
 80003e8:	719a      	strb	r2, [r3, #6]
	  msg->data[3] = (u_int)0x000000FF & (CAN1->sFIFOMailBox[0].RDLR >> 24);
 80003ea:	4b17      	ldr	r3, [pc, #92]	; (8000448 <Can_Rx_Msg+0xc4>)
 80003ec:	f8d3 31b8 	ldr.w	r3, [r3, #440]	; 0x1b8
 80003f0:	0e1b      	lsrs	r3, r3, #24
 80003f2:	b2da      	uxtb	r2, r3
 80003f4:	687b      	ldr	r3, [r7, #4]
 80003f6:	71da      	strb	r2, [r3, #7]

	  msg->data[4] = (u_int)0x000000FF & (CAN1->sFIFOMailBox[0].RDHR);
 80003f8:	4b13      	ldr	r3, [pc, #76]	; (8000448 <Can_Rx_Msg+0xc4>)
 80003fa:	f8d3 31bc 	ldr.w	r3, [r3, #444]	; 0x1bc
 80003fe:	b2da      	uxtb	r2, r3
 8000400:	687b      	ldr	r3, [r7, #4]
 8000402:	721a      	strb	r2, [r3, #8]
	  msg->data[5] = (u_int)0x000000FF & (CAN1->sFIFOMailBox[0].RDHR >> 8);
 8000404:	4b10      	ldr	r3, [pc, #64]	; (8000448 <Can_Rx_Msg+0xc4>)
 8000406:	f8d3 31bc 	ldr.w	r3, [r3, #444]	; 0x1bc
 800040a:	0a1b      	lsrs	r3, r3, #8
 800040c:	b2da      	uxtb	r2, r3
 800040e:	687b      	ldr	r3, [r7, #4]
 8000410:	725a      	strb	r2, [r3, #9]
	  msg->data[6] = (u_int)0x000000FF & (CAN1->sFIFOMailBox[0].RDHR >> 16);
 8000412:	4b0d      	ldr	r3, [pc, #52]	; (8000448 <Can_Rx_Msg+0xc4>)
 8000414:	f8d3 31bc 	ldr.w	r3, [r3, #444]	; 0x1bc
 8000418:	0c1b      	lsrs	r3, r3, #16
 800041a:	b2da      	uxtb	r2, r3
 800041c:	687b      	ldr	r3, [r7, #4]
 800041e:	729a      	strb	r2, [r3, #10]
	  msg->data[7] = (u_int)0x000000FF & (CAN1->sFIFOMailBox[0].RDHR >> 24);
 8000420:	4b09      	ldr	r3, [pc, #36]	; (8000448 <Can_Rx_Msg+0xc4>)
 8000422:	f8d3 31bc 	ldr.w	r3, [r3, #444]	; 0x1bc
 8000426:	0e1b      	lsrs	r3, r3, #24
 8000428:	b2da      	uxtb	r2, r3
 800042a:	687b      	ldr	r3, [r7, #4]
 800042c:	72da      	strb	r2, [r3, #11]

	  CAN1->RF0R |= CAN_RF0R_RFOM0;                    // Release FIFO 0 output mailbox
 800042e:	4b06      	ldr	r3, [pc, #24]	; (8000448 <Can_Rx_Msg+0xc4>)
 8000430:	68db      	ldr	r3, [r3, #12]
 8000432:	4a05      	ldr	r2, [pc, #20]	; (8000448 <Can_Rx_Msg+0xc4>)
 8000434:	f043 0320 	orr.w	r3, r3, #32
 8000438:	60d3      	str	r3, [r2, #12]

}
 800043a:	bf00      	nop
 800043c:	370c      	adds	r7, #12
 800043e:	46bd      	mov	sp, r7
 8000440:	f85d 7b04 	ldr.w	r7, [sp], #4
 8000444:	4770      	bx	lr
 8000446:	bf00      	nop
 8000448:	40006400 	.word	0x40006400

0800044c <CAN1_TX_IRQHandler>:
	  CAN_filterIdx += 1;                             // increase filter index

}


__attribute__((interrupt)) void CAN1_TX_IRQHandler (void)  {
 800044c:	4668      	mov	r0, sp
 800044e:	f020 0107 	bic.w	r1, r0, #7
 8000452:	468d      	mov	sp, r1
 8000454:	b481      	push	{r0, r7}
 8000456:	af00      	add	r7, sp, #0
	if (CAN1->TSR & CAN_TSR_RQCP0) {                 // request completed mbx 0
 8000458:	4b0b      	ldr	r3, [pc, #44]	; (8000488 <CAN1_TX_IRQHandler+0x3c>)
 800045a:	689b      	ldr	r3, [r3, #8]
 800045c:	f003 0301 	and.w	r3, r3, #1
 8000460:	2b00      	cmp	r3, #0
 8000462:	d00b      	beq.n	800047c <CAN1_TX_IRQHandler+0x30>
	    CAN1->TSR |= CAN_TSR_RQCP0;                  // reset request complete mbx 0
 8000464:	4b08      	ldr	r3, [pc, #32]	; (8000488 <CAN1_TX_IRQHandler+0x3c>)
 8000466:	689b      	ldr	r3, [r3, #8]
 8000468:	4a07      	ldr	r2, [pc, #28]	; (8000488 <CAN1_TX_IRQHandler+0x3c>)
 800046a:	f043 0301 	orr.w	r3, r3, #1
 800046e:	6093      	str	r3, [r2, #8]
	    CAN1->IER &= ~CAN_IER_TMEIE;                 // disable  TME interrupt
 8000470:	4b05      	ldr	r3, [pc, #20]	; (8000488 <CAN1_TX_IRQHandler+0x3c>)
 8000472:	695b      	ldr	r3, [r3, #20]
 8000474:	4a04      	ldr	r2, [pc, #16]	; (8000488 <CAN1_TX_IRQHandler+0x3c>)
 8000476:	f023 0301 	bic.w	r3, r3, #1
 800047a:	6153      	str	r3, [r2, #20]
	}

// Tx Interrupt Action

}
 800047c:	bf00      	nop
 800047e:	46bd      	mov	sp, r7
 8000480:	bc81      	pop	{r0, r7}
 8000482:	4685      	mov	sp, r0
 8000484:	4770      	bx	lr
 8000486:	bf00      	nop
 8000488:	40006400 	.word	0x40006400

0800048c <CAN1_RX0_IRQHandler>:



__attribute__((interrupt)) void CAN1_RX0_IRQHandler (void) {
 800048c:	4668      	mov	r0, sp
 800048e:	f020 0107 	bic.w	r1, r0, #7
 8000492:	468d      	mov	sp, r1
 8000494:	b589      	push	{r0, r3, r7, lr}
 8000496:	af00      	add	r7, sp, #0

	if (CAN1->RF0R & CAN_RF0R_FMP0) {			      // message pending ?
 8000498:	4b0a      	ldr	r3, [pc, #40]	; (80004c4 <CAN1_RX0_IRQHandler+0x38>)
 800049a:	68db      	ldr	r3, [r3, #12]
 800049c:	f003 0303 	and.w	r3, r3, #3
 80004a0:	2b00      	cmp	r3, #0
 80004a2:	d002      	beq.n	80004aa <CAN1_RX0_IRQHandler+0x1e>
		Can_Rx_Msg(&can_rx_message);                  // read the message
 80004a4:	4808      	ldr	r0, [pc, #32]	; (80004c8 <CAN1_RX0_IRQHandler+0x3c>)
 80004a6:	f7ff ff6d 	bl	8000384 <Can_Rx_Msg>
	}

	GPIOC->ODR ^= GPIO_ODR_OD11;
 80004aa:	4b08      	ldr	r3, [pc, #32]	; (80004cc <CAN1_RX0_IRQHandler+0x40>)
 80004ac:	695b      	ldr	r3, [r3, #20]
 80004ae:	4a07      	ldr	r2, [pc, #28]	; (80004cc <CAN1_RX0_IRQHandler+0x40>)
 80004b0:	f483 6300 	eor.w	r3, r3, #2048	; 0x800
 80004b4:	6153      	str	r3, [r2, #20]

}
 80004b6:	bf00      	nop
 80004b8:	46bd      	mov	sp, r7
 80004ba:	e8bd 4089 	ldmia.w	sp!, {r0, r3, r7, lr}
 80004be:	4685      	mov	sp, r0
 80004c0:	4770      	bx	lr
 80004c2:	bf00      	nop
 80004c4:	40006400 	.word	0x40006400
 80004c8:	2000001c 	.word	0x2000001c
 80004cc:	40020800 	.word	0x40020800

080004d0 <__NVIC_SetPriority>:
  \param [in]      IRQn  Interrupt number.
  \param [in]  priority  Priority to set.
  \note    The priority cannot be set for every processor exception.
 */
__STATIC_INLINE void __NVIC_SetPriority(IRQn_Type IRQn, uint32_t priority)
{
 80004d0:	b480      	push	{r7}
 80004d2:	b083      	sub	sp, #12
 80004d4:	af00      	add	r7, sp, #0
 80004d6:	4603      	mov	r3, r0
 80004d8:	6039      	str	r1, [r7, #0]
 80004da:	71fb      	strb	r3, [r7, #7]
  if ((int32_t)(IRQn) >= 0)
 80004dc:	f997 3007 	ldrsb.w	r3, [r7, #7]
 80004e0:	2b00      	cmp	r3, #0
 80004e2:	db0a      	blt.n	80004fa <__NVIC_SetPriority+0x2a>
  {
    NVIC->IP[((uint32_t)IRQn)]               = (uint8_t)((priority << (8U - __NVIC_PRIO_BITS)) & (uint32_t)0xFFUL);
 80004e4:	683b      	ldr	r3, [r7, #0]
 80004e6:	b2da      	uxtb	r2, r3
 80004e8:	490c      	ldr	r1, [pc, #48]	; (800051c <__NVIC_SetPriority+0x4c>)
 80004ea:	f997 3007 	ldrsb.w	r3, [r7, #7]
 80004ee:	0112      	lsls	r2, r2, #4
 80004f0:	b2d2      	uxtb	r2, r2
 80004f2:	440b      	add	r3, r1
 80004f4:	f883 2300 	strb.w	r2, [r3, #768]	; 0x300
  }
  else
  {
    SCB->SHP[(((uint32_t)IRQn) & 0xFUL)-4UL] = (uint8_t)((priority << (8U - __NVIC_PRIO_BITS)) & (uint32_t)0xFFUL);
  }
}
 80004f8:	e00a      	b.n	8000510 <__NVIC_SetPriority+0x40>
    SCB->SHP[(((uint32_t)IRQn) & 0xFUL)-4UL] = (uint8_t)((priority << (8U - __NVIC_PRIO_BITS)) & (uint32_t)0xFFUL);
 80004fa:	683b      	ldr	r3, [r7, #0]
 80004fc:	b2da      	uxtb	r2, r3
 80004fe:	4908      	ldr	r1, [pc, #32]	; (8000520 <__NVIC_SetPriority+0x50>)
 8000500:	79fb      	ldrb	r3, [r7, #7]
 8000502:	f003 030f 	and.w	r3, r3, #15
 8000506:	3b04      	subs	r3, #4
 8000508:	0112      	lsls	r2, r2, #4
 800050a:	b2d2      	uxtb	r2, r2
 800050c:	440b      	add	r3, r1
 800050e:	761a      	strb	r2, [r3, #24]
}
 8000510:	bf00      	nop
 8000512:	370c      	adds	r7, #12
 8000514:	46bd      	mov	sp, r7
 8000516:	f85d 7b04 	ldr.w	r7, [sp], #4
 800051a:	4770      	bx	lr
 800051c:	e000e100 	.word	0xe000e100
 8000520:	e000ed00 	.word	0xe000ed00

08000524 <SysTick_Config>:
  \note    When the variable <b>__Vendor_SysTickConfig</b> is set to 1, then the
           function <b>SysTick_Config</b> is not included. In this case, the file <b><i>device</i>.h</b>
           must contain a vendor-specific implementation of this function.
 */
__STATIC_INLINE uint32_t SysTick_Config(uint32_t ticks)
{
 8000524:	b580      	push	{r7, lr}
 8000526:	b082      	sub	sp, #8
 8000528:	af00      	add	r7, sp, #0
 800052a:	6078      	str	r0, [r7, #4]
  if ((ticks - 1UL) > SysTick_LOAD_RELOAD_Msk)
 800052c:	687b      	ldr	r3, [r7, #4]
 800052e:	3b01      	subs	r3, #1
 8000530:	f1b3 7f80 	cmp.w	r3, #16777216	; 0x1000000
 8000534:	d301      	bcc.n	800053a <SysTick_Config+0x16>
  {
    return (1UL);                                                   /* Reload value impossible */
 8000536:	2301      	movs	r3, #1
 8000538:	e00f      	b.n	800055a <SysTick_Config+0x36>
  }

  SysTick->LOAD  = (uint32_t)(ticks - 1UL);                         /* set reload register */
 800053a:	4a0a      	ldr	r2, [pc, #40]	; (8000564 <SysTick_Config+0x40>)
 800053c:	687b      	ldr	r3, [r7, #4]
 800053e:	3b01      	subs	r3, #1
 8000540:	6053      	str	r3, [r2, #4]
  NVIC_SetPriority (SysTick_IRQn, (1UL << __NVIC_PRIO_BITS) - 1UL); /* set Priority for Systick Interrupt */
 8000542:	210f      	movs	r1, #15
 8000544:	f04f 30ff 	mov.w	r0, #4294967295
 8000548:	f7ff ffc2 	bl	80004d0 <__NVIC_SetPriority>
  SysTick->VAL   = 0UL;                                             /* Load the SysTick Counter Value */
 800054c:	4b05      	ldr	r3, [pc, #20]	; (8000564 <SysTick_Config+0x40>)
 800054e:	2200      	movs	r2, #0
 8000550:	609a      	str	r2, [r3, #8]
  SysTick->CTRL  = SysTick_CTRL_CLKSOURCE_Msk |
 8000552:	4b04      	ldr	r3, [pc, #16]	; (8000564 <SysTick_Config+0x40>)
 8000554:	2207      	movs	r2, #7
 8000556:	601a      	str	r2, [r3, #0]
                   SysTick_CTRL_TICKINT_Msk   |
                   SysTick_CTRL_ENABLE_Msk;                         /* Enable SysTick IRQ and SysTick Timer */
  return (0UL);                                                     /* Function successful */
 8000558:	2300      	movs	r3, #0
}
 800055a:	4618      	mov	r0, r3
 800055c:	3708      	adds	r7, #8
 800055e:	46bd      	mov	sp, r7
 8000560:	bd80      	pop	{r7, pc}
 8000562:	bf00      	nop
 8000564:	e000e010 	.word	0xe000e010

08000568 <SystemRegisterCFG>:
 *  https://mmttechnologies.com/
 */
#include "config.h"


void SystemRegisterCFG(void) {
 8000568:	b580      	push	{r7, lr}
 800056a:	af00      	add	r7, sp, #0
	// RCC Configuration
	RCC->AHB1ENR |= RCC_AHB1ENR_GPIOAEN | RCC_AHB1ENR_GPIOBEN | RCC_AHB1ENR_GPIOCEN;	// GPIO Clock
 800056c:	4b22      	ldr	r3, [pc, #136]	; (80005f8 <SystemRegisterCFG+0x90>)
 800056e:	6b1b      	ldr	r3, [r3, #48]	; 0x30
 8000570:	4a21      	ldr	r2, [pc, #132]	; (80005f8 <SystemRegisterCFG+0x90>)
 8000572:	f043 0307 	orr.w	r3, r3, #7
 8000576:	6313      	str	r3, [r2, #48]	; 0x30
	RCC->APB2ENR |= RCC_APB2ENR_SPI1EN;		// SPI1 clock
 8000578:	4b1f      	ldr	r3, [pc, #124]	; (80005f8 <SystemRegisterCFG+0x90>)
 800057a:	6c5b      	ldr	r3, [r3, #68]	; 0x44
 800057c:	4a1e      	ldr	r2, [pc, #120]	; (80005f8 <SystemRegisterCFG+0x90>)
 800057e:	f443 5380 	orr.w	r3, r3, #4096	; 0x1000
 8000582:	6453      	str	r3, [r2, #68]	; 0x44

	// Standard GPIO Config
	GPIOC->MODER |= GPIO_MODER_MODE8_0 | GPIO_MODER_MODE9_0 | GPIO_MODER_MODE11_0 | GPIO_MODER_MODE12_0;	// STM LEDs output
 8000584:	4b1d      	ldr	r3, [pc, #116]	; (80005fc <SystemRegisterCFG+0x94>)
 8000586:	681b      	ldr	r3, [r3, #0]
 8000588:	4a1c      	ldr	r2, [pc, #112]	; (80005fc <SystemRegisterCFG+0x94>)
 800058a:	f043 73a2 	orr.w	r3, r3, #21233664	; 0x1440000
 800058e:	f443 3380 	orr.w	r3, r3, #65536	; 0x10000
 8000592:	6013      	str	r3, [r2, #0]
	GPIOC->ODR |= GPIO_ODR_OD8 | GPIO_ODR_OD9 | GPIO_ODR_OD11 | GPIO_ODR_OD12;		// STM LEDs OFF
 8000594:	4b19      	ldr	r3, [pc, #100]	; (80005fc <SystemRegisterCFG+0x94>)
 8000596:	695b      	ldr	r3, [r3, #20]
 8000598:	4a18      	ldr	r2, [pc, #96]	; (80005fc <SystemRegisterCFG+0x94>)
 800059a:	f443 53d8 	orr.w	r3, r3, #6912	; 0x1b00
 800059e:	6153      	str	r3, [r2, #20]

	// W6100 External Reset config
	GPIOC->MODER |= GPIO_MODER_MODE4_0;		// Output
 80005a0:	4b16      	ldr	r3, [pc, #88]	; (80005fc <SystemRegisterCFG+0x94>)
 80005a2:	681b      	ldr	r3, [r3, #0]
 80005a4:	4a15      	ldr	r2, [pc, #84]	; (80005fc <SystemRegisterCFG+0x94>)
 80005a6:	f443 7380 	orr.w	r3, r3, #256	; 0x100
 80005aa:	6013      	str	r3, [r2, #0]
	GPIOC->ODR |= GPIO_ODR_OD4;				// Level high (reset disable)
 80005ac:	4b13      	ldr	r3, [pc, #76]	; (80005fc <SystemRegisterCFG+0x94>)
 80005ae:	695b      	ldr	r3, [r3, #20]
 80005b0:	4a12      	ldr	r2, [pc, #72]	; (80005fc <SystemRegisterCFG+0x94>)
 80005b2:	f043 0310 	orr.w	r3, r3, #16
 80005b6:	6153      	str	r3, [r2, #20]

	// SPI GPIO Config
	GPIOA->MODER |= GPIO_MODER_MODE4_0 | GPIO_MODER_MODE5_1 | GPIO_MODER_MODE6_1 | GPIO_MODER_MODE7_1;		// SPI1 AFIO Set (NSS Software)
 80005b8:	4b11      	ldr	r3, [pc, #68]	; (8000600 <SystemRegisterCFG+0x98>)
 80005ba:	681b      	ldr	r3, [r3, #0]
 80005bc:	4a10      	ldr	r2, [pc, #64]	; (8000600 <SystemRegisterCFG+0x98>)
 80005be:	f443 4329 	orr.w	r3, r3, #43264	; 0xa900
 80005c2:	6013      	str	r3, [r2, #0]
	GPIOA->ODR |= GPIO_ODR_OD4;		// Slave select HIGH (disable)
 80005c4:	4b0e      	ldr	r3, [pc, #56]	; (8000600 <SystemRegisterCFG+0x98>)
 80005c6:	695b      	ldr	r3, [r3, #20]
 80005c8:	4a0d      	ldr	r2, [pc, #52]	; (8000600 <SystemRegisterCFG+0x98>)
 80005ca:	f043 0310 	orr.w	r3, r3, #16
 80005ce:	6153      	str	r3, [r2, #20]
	GPIOA->AFR[0] |= GPIO_AFRL_AFRL5_0 | GPIO_AFRL_AFRL5_2 | GPIO_AFRL_AFRL6_0 |
 80005d0:	4b0b      	ldr	r3, [pc, #44]	; (8000600 <SystemRegisterCFG+0x98>)
 80005d2:	6a1b      	ldr	r3, [r3, #32]
 80005d4:	4a0a      	ldr	r2, [pc, #40]	; (8000600 <SystemRegisterCFG+0x98>)
 80005d6:	f043 43aa 	orr.w	r3, r3, #1426063360	; 0x55000000
 80005da:	f443 03a0 	orr.w	r3, r3, #5242880	; 0x500000
 80005de:	6213      	str	r3, [r2, #32]
					 GPIO_AFRL_AFRL6_2 | GPIO_AFRL_AFRL7_0 | GPIO_AFRL_AFRL7_2;			// SPI1 AFIO => SPI1

	// SPI Config
	SPI1->CR1 |= SPI_CR1_SPE | SPI_CR1_SSI | SPI_CR1_SSM | SPI_CR1_MSTR;
 80005e0:	4b08      	ldr	r3, [pc, #32]	; (8000604 <SystemRegisterCFG+0x9c>)
 80005e2:	681b      	ldr	r3, [r3, #0]
 80005e4:	4a07      	ldr	r2, [pc, #28]	; (8000604 <SystemRegisterCFG+0x9c>)
 80005e6:	f443 7351 	orr.w	r3, r3, #836	; 0x344
 80005ea:	6013      	str	r3, [r2, #0]


	// SysTic Config
	SysTick_Config(16000000);
 80005ec:	4806      	ldr	r0, [pc, #24]	; (8000608 <SystemRegisterCFG+0xa0>)
 80005ee:	f7ff ff99 	bl	8000524 <SysTick_Config>
}
 80005f2:	bf00      	nop
 80005f4:	bd80      	pop	{r7, pc}
 80005f6:	bf00      	nop
 80005f8:	40023800 	.word	0x40023800
 80005fc:	40020800 	.word	0x40020800
 8000600:	40020000 	.word	0x40020000
 8000604:	40013000 	.word	0x40013000
 8000608:	00f42400 	.word	0x00f42400

0800060c <SysTick_Handler>:





__attribute__((interrupt)) void SysTick_Handler(void){
 800060c:	4668      	mov	r0, sp
 800060e:	f020 0107 	bic.w	r1, r0, #7
 8000612:	468d      	mov	sp, r1
 8000614:	b481      	push	{r0, r7}
 8000616:	af00      	add	r7, sp, #0
//	GPIOC->ODR ^= GPIO_ODR_OD11;
}
 8000618:	bf00      	nop
 800061a:	46bd      	mov	sp, r7
 800061c:	bc81      	pop	{r0, r7}
 800061e:	4685      	mov	sp, r0
 8000620:	4770      	bx	lr
	...

08000624 <main>:
#include "can.h"



int main(void)
{
 8000624:	b5b0      	push	{r4, r5, r7, lr}
 8000626:	b09e      	sub	sp, #120	; 0x78
 8000628:	af00      	add	r7, sp, #0

	SystemRegisterCFG();
 800062a:	f7ff ff9d 	bl	8000568 <SystemRegisterCFG>

	GPIOC->ODR &= ~GPIO_ODR_OD9;						// Server RED LED ON
 800062e:	4b58      	ldr	r3, [pc, #352]	; (8000790 <main+0x16c>)
 8000630:	695b      	ldr	r3, [r3, #20]
 8000632:	4a57      	ldr	r2, [pc, #348]	; (8000790 <main+0x16c>)
 8000634:	f423 7300 	bic.w	r3, r3, #512	; 0x200
 8000638:	6153      	str	r3, [r2, #20]

	uint8_t rx_dat[20];
	uint8_t on_message[20] = {"System Enabled\n"};
 800063a:	4b56      	ldr	r3, [pc, #344]	; (8000794 <main+0x170>)
 800063c:	f107 0448 	add.w	r4, r7, #72	; 0x48
 8000640:	cb0f      	ldmia	r3, {r0, r1, r2, r3}
 8000642:	e884 000f 	stmia.w	r4, {r0, r1, r2, r3}
 8000646:	2300      	movs	r3, #0
 8000648:	65bb      	str	r3, [r7, #88]	; 0x58
	uint8_t off_message[20] = {"System Disabled\n"};
 800064a:	4b53      	ldr	r3, [pc, #332]	; (8000798 <main+0x174>)
 800064c:	f107 0434 	add.w	r4, r7, #52	; 0x34
 8000650:	461d      	mov	r5, r3
 8000652:	cd0f      	ldmia	r5!, {r0, r1, r2, r3}
 8000654:	c40f      	stmia	r4!, {r0, r1, r2, r3}
 8000656:	682b      	ldr	r3, [r5, #0]
 8000658:	7023      	strb	r3, [r4, #0]
 800065a:	f107 0345 	add.w	r3, r7, #69	; 0x45
 800065e:	2200      	movs	r2, #0
 8000660:	801a      	strh	r2, [r3, #0]
 8000662:	709a      	strb	r2, [r3, #2]


	uint32_t destination_adr;


	W6100_INIT();										// Initialise W6100 with basic network information
 8000664:	f000 f995 	bl	8000992 <W6100_INIT>

	/* Socket Configuration */
	uint8_t txTotalSize = 0;
 8000668:	2300      	movs	r3, #0
 800066a:	f887 3077 	strb.w	r3, [r7, #119]	; 0x77
	uint8_t rxTotalSize = 0;
 800066e:	2300      	movs	r3, #0
 8000670:	f887 3076 	strb.w	r3, [r7, #118]	; 0x76

	for (uint8_t i=0; i<7; i++) {
 8000674:	2300      	movs	r3, #0
 8000676:	f887 3075 	strb.w	r3, [r7, #117]	; 0x75
 800067a:	e01e      	b.n	80006ba <main+0x96>
		SPI_W6100_WSOCK(Sn_TX_BSR, 0x02, i, REG);		// assign 2 Kbytes TX buffer per SOCKET
 800067c:	f897 2075 	ldrb.w	r2, [r7, #117]	; 0x75
 8000680:	2301      	movs	r3, #1
 8000682:	2102      	movs	r1, #2
 8000684:	f44f 7000 	mov.w	r0, #512	; 0x200
 8000688:	f000 f944 	bl	8000914 <SPI_W6100_WSOCK>
		SPI_W6100_WSOCK(Sn_RX_BSR, 0x02, i, REG);		// assign 2 Kbytes RX buffer per SOCKET
 800068c:	f897 2075 	ldrb.w	r2, [r7, #117]	; 0x75
 8000690:	2301      	movs	r3, #1
 8000692:	2102      	movs	r1, #2
 8000694:	f44f 7008 	mov.w	r0, #544	; 0x220
 8000698:	f000 f93c 	bl	8000914 <SPI_W6100_WSOCK>
		txTotalSize += 0x02;
 800069c:	f897 3077 	ldrb.w	r3, [r7, #119]	; 0x77
 80006a0:	3302      	adds	r3, #2
 80006a2:	f887 3077 	strb.w	r3, [r7, #119]	; 0x77
		rxTotalSize += 0x02;
 80006a6:	f897 3076 	ldrb.w	r3, [r7, #118]	; 0x76
 80006aa:	3302      	adds	r3, #2
 80006ac:	f887 3076 	strb.w	r3, [r7, #118]	; 0x76
	for (uint8_t i=0; i<7; i++) {
 80006b0:	f897 3075 	ldrb.w	r3, [r7, #117]	; 0x75
 80006b4:	3301      	adds	r3, #1
 80006b6:	f887 3075 	strb.w	r3, [r7, #117]	; 0x75
 80006ba:	f897 3075 	ldrb.w	r3, [r7, #117]	; 0x75
 80006be:	2b06      	cmp	r3, #6
 80006c0:	d9dc      	bls.n	800067c <main+0x58>
	}

	destination_adr = W6100_OpenTCPSocket(0);			// Open TCP socket 0 and return its destination address
 80006c2:	2000      	movs	r0, #0
 80006c4:	f000 fb0e 	bl	8000ce4 <W6100_OpenTCPSocket>
 80006c8:	6738      	str	r0, [r7, #112]	; 0x70


	CAN_MESSAGE can_on_msg;
	strcpy(can_on_msg.data, "Enabled\n");
 80006ca:	f107 031c 	add.w	r3, r7, #28
 80006ce:	3304      	adds	r3, #4
 80006d0:	4a32      	ldr	r2, [pc, #200]	; (800079c <main+0x178>)
 80006d2:	ca07      	ldmia	r2, {r0, r1, r2}
 80006d4:	c303      	stmia	r3!, {r0, r1}
 80006d6:	701a      	strb	r2, [r3, #0]
	can_on_msg.format = STANDARD_FORMAT;
 80006d8:	2300      	movs	r3, #0
 80006da:	62fb      	str	r3, [r7, #44]	; 0x2c
	can_on_msg.type = DATA_FRAME;
 80006dc:	2300      	movs	r3, #0
 80006de:	633b      	str	r3, [r7, #48]	; 0x30
	can_on_msg.len = 9;
 80006e0:	2309      	movs	r3, #9
 80006e2:	62bb      	str	r3, [r7, #40]	; 0x28
	can_on_msg.id = 0xab;
 80006e4:	23ab      	movs	r3, #171	; 0xab
 80006e6:	61fb      	str	r3, [r7, #28]

	CAN_MESSAGE can_off_msg;
	strcpy(can_off_msg.data, "Disabled\n");
 80006e8:	1d3b      	adds	r3, r7, #4
 80006ea:	3304      	adds	r3, #4
 80006ec:	4a2c      	ldr	r2, [pc, #176]	; (80007a0 <main+0x17c>)
 80006ee:	ca07      	ldmia	r2, {r0, r1, r2}
 80006f0:	c303      	stmia	r3!, {r0, r1}
 80006f2:	801a      	strh	r2, [r3, #0]
	can_off_msg.format = STANDARD_FORMAT;
 80006f4:	2300      	movs	r3, #0
 80006f6:	617b      	str	r3, [r7, #20]
	can_off_msg.type = DATA_FRAME;
 80006f8:	2300      	movs	r3, #0
 80006fa:	61bb      	str	r3, [r7, #24]
	can_off_msg.len = 10;
 80006fc:	230a      	movs	r3, #10
 80006fe:	613b      	str	r3, [r7, #16]
	can_off_msg.id = 0xcd;
 8000700:	23cd      	movs	r3, #205	; 0xcd
 8000702:	607b      	str	r3, [r7, #4]



	CanInit();
 8000704:	f7ff fd7e 	bl	8000204 <CanInit>



	while (1) {

		if (W6100_ReceiveData(0, destination_adr, rx_dat, sizeof(rx_dat))) {		// Check if data arrived
 8000708:	f107 025c 	add.w	r2, r7, #92	; 0x5c
 800070c:	2314      	movs	r3, #20
 800070e:	6f39      	ldr	r1, [r7, #112]	; 0x70
 8000710:	2000      	movs	r0, #0
 8000712:	f000 fb73 	bl	8000dfc <W6100_ReceiveData>
 8000716:	4603      	mov	r3, r0
 8000718:	2b00      	cmp	r3, #0
 800071a:	d0f5      	beq.n	8000708 <main+0xe4>
			if (rx_dat[0] == 'o' && rx_dat[1] == 'n') {
 800071c:	f897 305c 	ldrb.w	r3, [r7, #92]	; 0x5c
 8000720:	2b6f      	cmp	r3, #111	; 0x6f
 8000722:	d116      	bne.n	8000752 <main+0x12e>
 8000724:	f897 305d 	ldrb.w	r3, [r7, #93]	; 0x5d
 8000728:	2b6e      	cmp	r3, #110	; 0x6e
 800072a:	d112      	bne.n	8000752 <main+0x12e>
				GPIOC->ODR &= ~GPIO_ODR_OD12;
 800072c:	4b18      	ldr	r3, [pc, #96]	; (8000790 <main+0x16c>)
 800072e:	695b      	ldr	r3, [r3, #20]
 8000730:	4a17      	ldr	r2, [pc, #92]	; (8000790 <main+0x16c>)
 8000732:	f423 5380 	bic.w	r3, r3, #4096	; 0x1000
 8000736:	6153      	str	r3, [r2, #20]
				// Send msg to the client
				W6100_TransmitData(0, destination_adr, on_message, sizeof(on_message));
 8000738:	f107 0248 	add.w	r2, r7, #72	; 0x48
 800073c:	2314      	movs	r3, #20
 800073e:	6f39      	ldr	r1, [r7, #112]	; 0x70
 8000740:	2000      	movs	r0, #0
 8000742:	f000 fc2a 	bl	8000f9a <W6100_TransmitData>
				Can_Tx_Msg(&can_on_msg);
 8000746:	f107 031c 	add.w	r3, r7, #28
 800074a:	4618      	mov	r0, r3
 800074c:	f7ff fd9a 	bl	8000284 <Can_Tx_Msg>
 8000750:	e01c      	b.n	800078c <main+0x168>

			}
			else if (rx_dat[0] == 'o' && rx_dat[1] == 'f' && rx_dat[2] == 'f')	{
 8000752:	f897 305c 	ldrb.w	r3, [r7, #92]	; 0x5c
 8000756:	2b6f      	cmp	r3, #111	; 0x6f
 8000758:	d1d6      	bne.n	8000708 <main+0xe4>
 800075a:	f897 305d 	ldrb.w	r3, [r7, #93]	; 0x5d
 800075e:	2b66      	cmp	r3, #102	; 0x66
 8000760:	d1d2      	bne.n	8000708 <main+0xe4>
 8000762:	f897 305e 	ldrb.w	r3, [r7, #94]	; 0x5e
 8000766:	2b66      	cmp	r3, #102	; 0x66
 8000768:	d1ce      	bne.n	8000708 <main+0xe4>
				GPIOC->ODR |= GPIO_ODR_OD12;
 800076a:	4b09      	ldr	r3, [pc, #36]	; (8000790 <main+0x16c>)
 800076c:	695b      	ldr	r3, [r3, #20]
 800076e:	4a08      	ldr	r2, [pc, #32]	; (8000790 <main+0x16c>)
 8000770:	f443 5380 	orr.w	r3, r3, #4096	; 0x1000
 8000774:	6153      	str	r3, [r2, #20]
				// Send msg to the client
				W6100_TransmitData(0, destination_adr, off_message, sizeof(off_message));
 8000776:	f107 0234 	add.w	r2, r7, #52	; 0x34
 800077a:	2314      	movs	r3, #20
 800077c:	6f39      	ldr	r1, [r7, #112]	; 0x70
 800077e:	2000      	movs	r0, #0
 8000780:	f000 fc0b 	bl	8000f9a <W6100_TransmitData>
				// Send CAN frame
				Can_Tx_Msg(&can_off_msg);
 8000784:	1d3b      	adds	r3, r7, #4
 8000786:	4618      	mov	r0, r3
 8000788:	f7ff fd7c 	bl	8000284 <Can_Tx_Msg>
		if (W6100_ReceiveData(0, destination_adr, rx_dat, sizeof(rx_dat))) {		// Check if data arrived
 800078c:	e7bc      	b.n	8000708 <main+0xe4>
 800078e:	bf00      	nop
 8000790:	40020800 	.word	0x40020800
 8000794:	08001300 	.word	0x08001300
 8000798:	08001314 	.word	0x08001314
 800079c:	080012e8 	.word	0x080012e8
 80007a0:	080012f4 	.word	0x080012f4

080007a4 <SystemInit>:
  *         configuration.
  * @param  None
  * @retval None
  */
void SystemInit(void)
{
 80007a4:	b480      	push	{r7}
 80007a6:	af00      	add	r7, sp, #0
  /* FPU settings ------------------------------------------------------------*/
  #if (__FPU_PRESENT == 1) && (__FPU_USED == 1)
    SCB->CPACR |= ((3UL << 10*2)|(3UL << 11*2));  /* set CP10 and CP11 Full Access */
 80007a8:	4b08      	ldr	r3, [pc, #32]	; (80007cc <SystemInit+0x28>)
 80007aa:	f8d3 3088 	ldr.w	r3, [r3, #136]	; 0x88
 80007ae:	4a07      	ldr	r2, [pc, #28]	; (80007cc <SystemInit+0x28>)
 80007b0:	f443 0370 	orr.w	r3, r3, #15728640	; 0xf00000
 80007b4:	f8c2 3088 	str.w	r3, [r2, #136]	; 0x88

  /* Configure the Vector Table location add offset address ------------------*/
#ifdef VECT_TAB_SRAM
  SCB->VTOR = SRAM_BASE | VECT_TAB_OFFSET; /* Vector Table Relocation in Internal SRAM */
#else
  SCB->VTOR = FLASH_BASE | VECT_TAB_OFFSET; /* Vector Table Relocation in Internal FLASH */
 80007b8:	4b04      	ldr	r3, [pc, #16]	; (80007cc <SystemInit+0x28>)
 80007ba:	f04f 6200 	mov.w	r2, #134217728	; 0x8000000
 80007be:	609a      	str	r2, [r3, #8]
#endif
}
 80007c0:	bf00      	nop
 80007c2:	46bd      	mov	sp, r7
 80007c4:	f85d 7b04 	ldr.w	r7, [sp], #4
 80007c8:	4770      	bx	lr
 80007ca:	bf00      	nop
 80007cc:	e000ed00 	.word	0xe000ed00

080007d0 <SPI_Eth_SS>:
#include "w6100.h"




void SPI_Eth_SS(uint8_t state) {
 80007d0:	b480      	push	{r7}
 80007d2:	b083      	sub	sp, #12
 80007d4:	af00      	add	r7, sp, #0
 80007d6:	4603      	mov	r3, r0
 80007d8:	71fb      	strb	r3, [r7, #7]
	if (state) {
 80007da:	79fb      	ldrb	r3, [r7, #7]
 80007dc:	2b00      	cmp	r3, #0
 80007de:	d006      	beq.n	80007ee <SPI_Eth_SS+0x1e>
		GPIOA->ODR &= ~GPIO_ODR_OD4;
 80007e0:	4b0a      	ldr	r3, [pc, #40]	; (800080c <SPI_Eth_SS+0x3c>)
 80007e2:	695b      	ldr	r3, [r3, #20]
 80007e4:	4a09      	ldr	r2, [pc, #36]	; (800080c <SPI_Eth_SS+0x3c>)
 80007e6:	f023 0310 	bic.w	r3, r3, #16
 80007ea:	6153      	str	r3, [r2, #20]
	}
	else if (!state) {
		GPIOA->ODR |= GPIO_ODR_OD4;
	}
}
 80007ec:	e008      	b.n	8000800 <SPI_Eth_SS+0x30>
	else if (!state) {
 80007ee:	79fb      	ldrb	r3, [r7, #7]
 80007f0:	2b00      	cmp	r3, #0
 80007f2:	d105      	bne.n	8000800 <SPI_Eth_SS+0x30>
		GPIOA->ODR |= GPIO_ODR_OD4;
 80007f4:	4b05      	ldr	r3, [pc, #20]	; (800080c <SPI_Eth_SS+0x3c>)
 80007f6:	695b      	ldr	r3, [r3, #20]
 80007f8:	4a04      	ldr	r2, [pc, #16]	; (800080c <SPI_Eth_SS+0x3c>)
 80007fa:	f043 0310 	orr.w	r3, r3, #16
 80007fe:	6153      	str	r3, [r2, #20]
}
 8000800:	bf00      	nop
 8000802:	370c      	adds	r7, #12
 8000804:	46bd      	mov	sp, r7
 8000806:	f85d 7b04 	ldr.w	r7, [sp], #4
 800080a:	4770      	bx	lr
 800080c:	40020000 	.word	0x40020000

08000810 <SPI_Eth_RT>:

uint8_t SPI_Eth_RT(uint8_t data) {
 8000810:	b480      	push	{r7}
 8000812:	b083      	sub	sp, #12
 8000814:	af00      	add	r7, sp, #0
 8000816:	4603      	mov	r3, r0
 8000818:	71fb      	strb	r3, [r7, #7]
	while(!(SPI1->SR & SPI_SR_TXE));	// Wait for Tx buffer empty
 800081a:	bf00      	nop
 800081c:	4b0c      	ldr	r3, [pc, #48]	; (8000850 <SPI_Eth_RT+0x40>)
 800081e:	689b      	ldr	r3, [r3, #8]
 8000820:	f003 0302 	and.w	r3, r3, #2
 8000824:	2b00      	cmp	r3, #0
 8000826:	d0f9      	beq.n	800081c <SPI_Eth_RT+0xc>
	SPI1->DR = data;
 8000828:	4a09      	ldr	r2, [pc, #36]	; (8000850 <SPI_Eth_RT+0x40>)
 800082a:	79fb      	ldrb	r3, [r7, #7]
 800082c:	60d3      	str	r3, [r2, #12]
	while(!(SPI1->SR & SPI_SR_RXNE));	// Wait for Rx buffer not empty
 800082e:	bf00      	nop
 8000830:	4b07      	ldr	r3, [pc, #28]	; (8000850 <SPI_Eth_RT+0x40>)
 8000832:	689b      	ldr	r3, [r3, #8]
 8000834:	f003 0301 	and.w	r3, r3, #1
 8000838:	2b00      	cmp	r3, #0
 800083a:	d0f9      	beq.n	8000830 <SPI_Eth_RT+0x20>
	data = SPI1->DR;
 800083c:	4b04      	ldr	r3, [pc, #16]	; (8000850 <SPI_Eth_RT+0x40>)
 800083e:	68db      	ldr	r3, [r3, #12]
 8000840:	71fb      	strb	r3, [r7, #7]
	return data;
 8000842:	79fb      	ldrb	r3, [r7, #7]
}
 8000844:	4618      	mov	r0, r3
 8000846:	370c      	adds	r7, #12
 8000848:	46bd      	mov	sp, r7
 800084a:	f85d 7b04 	ldr.w	r7, [sp], #4
 800084e:	4770      	bx	lr
 8000850:	40013000 	.word	0x40013000

08000854 <SPI_W6100_WCR>:
	dat = SPI_Eth_RT(0x00);	// Send garbage data to read the Common Register
	SPI_Eth_SS(OFF);		// NSS Slave Disable
	return dat;
}

void SPI_W6100_WCR(uint16_t adr, uint8_t val) {
 8000854:	b580      	push	{r7, lr}
 8000856:	b082      	sub	sp, #8
 8000858:	af00      	add	r7, sp, #0
 800085a:	4603      	mov	r3, r0
 800085c:	460a      	mov	r2, r1
 800085e:	80fb      	strh	r3, [r7, #6]
 8000860:	4613      	mov	r3, r2
 8000862:	717b      	strb	r3, [r7, #5]
	/* See Page 76 - W6100 datasheet */
	SPI_Eth_SS(ON);			// NSS Slave Enable
 8000864:	2001      	movs	r0, #1
 8000866:	f7ff ffb3 	bl	80007d0 <SPI_Eth_SS>
	SPI_Eth_RT(adr>>8);		// Send upper address half
 800086a:	88fb      	ldrh	r3, [r7, #6]
 800086c:	0a1b      	lsrs	r3, r3, #8
 800086e:	b29b      	uxth	r3, r3
 8000870:	b2db      	uxtb	r3, r3
 8000872:	4618      	mov	r0, r3
 8000874:	f7ff ffcc 	bl	8000810 <SPI_Eth_RT>
	SPI_Eth_RT(adr);		// Send lower address half
 8000878:	88fb      	ldrh	r3, [r7, #6]
 800087a:	b2db      	uxtb	r3, r3
 800087c:	4618      	mov	r0, r3
 800087e:	f7ff ffc7 	bl	8000810 <SPI_Eth_RT>
	SPI_Eth_RT(0x04);		// Send Control Byte	[CR, Write, Variable Length Data Mode]
 8000882:	2004      	movs	r0, #4
 8000884:	f7ff ffc4 	bl	8000810 <SPI_Eth_RT>
	SPI_Eth_RT(val);		// Send val to be written in the register
 8000888:	797b      	ldrb	r3, [r7, #5]
 800088a:	4618      	mov	r0, r3
 800088c:	f7ff ffc0 	bl	8000810 <SPI_Eth_RT>
	SPI_Eth_SS(OFF);
 8000890:	2000      	movs	r0, #0
 8000892:	f7ff ff9d 	bl	80007d0 <SPI_Eth_SS>
}
 8000896:	bf00      	nop
 8000898:	3708      	adds	r7, #8
 800089a:	46bd      	mov	sp, r7
 800089c:	bd80      	pop	{r7, pc}

0800089e <SPI_W6100_RSOCK>:

uint8_t SPI_W6100_RSOCK(uint16_t adr, uint8_t socket_nbr, uint8_t block) {
 800089e:	b580      	push	{r7, lr}
 80008a0:	b084      	sub	sp, #16
 80008a2:	af00      	add	r7, sp, #0
 80008a4:	4603      	mov	r3, r0
 80008a6:	80fb      	strh	r3, [r7, #6]
 80008a8:	460b      	mov	r3, r1
 80008aa:	717b      	strb	r3, [r7, #5]
 80008ac:	4613      	mov	r3, r2
 80008ae:	713b      	strb	r3, [r7, #4]
	uint8_t dat;
	uint8_t cb_temp = 0x00;
 80008b0:	2300      	movs	r3, #0
 80008b2:	73fb      	strb	r3, [r7, #15]
	cb_temp |= (socket_nbr << 5);
 80008b4:	797b      	ldrb	r3, [r7, #5]
 80008b6:	015b      	lsls	r3, r3, #5
 80008b8:	b25a      	sxtb	r2, r3
 80008ba:	f997 300f 	ldrsb.w	r3, [r7, #15]
 80008be:	4313      	orrs	r3, r2
 80008c0:	b25b      	sxtb	r3, r3
 80008c2:	73fb      	strb	r3, [r7, #15]
	cb_temp |= (block << 3);
 80008c4:	793b      	ldrb	r3, [r7, #4]
 80008c6:	00db      	lsls	r3, r3, #3
 80008c8:	b25a      	sxtb	r2, r3
 80008ca:	f997 300f 	ldrsb.w	r3, [r7, #15]
 80008ce:	4313      	orrs	r3, r2
 80008d0:	b25b      	sxtb	r3, r3
 80008d2:	73fb      	strb	r3, [r7, #15]
	SPI_Eth_SS(ON);			// NSS Slave Enable
 80008d4:	2001      	movs	r0, #1
 80008d6:	f7ff ff7b 	bl	80007d0 <SPI_Eth_SS>
	SPI_Eth_RT(adr>>8);		// Send upper address half
 80008da:	88fb      	ldrh	r3, [r7, #6]
 80008dc:	0a1b      	lsrs	r3, r3, #8
 80008de:	b29b      	uxth	r3, r3
 80008e0:	b2db      	uxtb	r3, r3
 80008e2:	4618      	mov	r0, r3
 80008e4:	f7ff ff94 	bl	8000810 <SPI_Eth_RT>
	SPI_Eth_RT(adr);		// Send lower address half
 80008e8:	88fb      	ldrh	r3, [r7, #6]
 80008ea:	b2db      	uxtb	r3, r3
 80008ec:	4618      	mov	r0, r3
 80008ee:	f7ff ff8f 	bl	8000810 <SPI_Eth_RT>
	SPI_Eth_RT(cb_temp);	// Send Control Byte
 80008f2:	7bfb      	ldrb	r3, [r7, #15]
 80008f4:	4618      	mov	r0, r3
 80008f6:	f7ff ff8b 	bl	8000810 <SPI_Eth_RT>
	dat = SPI_Eth_RT(0x00);		// Send garbage data to read the Common Register
 80008fa:	2000      	movs	r0, #0
 80008fc:	f7ff ff88 	bl	8000810 <SPI_Eth_RT>
 8000900:	4603      	mov	r3, r0
 8000902:	73bb      	strb	r3, [r7, #14]
	SPI_Eth_SS(OFF);
 8000904:	2000      	movs	r0, #0
 8000906:	f7ff ff63 	bl	80007d0 <SPI_Eth_SS>
	return dat;
 800090a:	7bbb      	ldrb	r3, [r7, #14]
}
 800090c:	4618      	mov	r0, r3
 800090e:	3710      	adds	r7, #16
 8000910:	46bd      	mov	sp, r7
 8000912:	bd80      	pop	{r7, pc}

08000914 <SPI_W6100_WSOCK>:

void SPI_W6100_WSOCK(uint16_t adr, uint8_t val, uint8_t socket_nbr, uint8_t block) {
 8000914:	b590      	push	{r4, r7, lr}
 8000916:	b085      	sub	sp, #20
 8000918:	af00      	add	r7, sp, #0
 800091a:	4604      	mov	r4, r0
 800091c:	4608      	mov	r0, r1
 800091e:	4611      	mov	r1, r2
 8000920:	461a      	mov	r2, r3
 8000922:	4623      	mov	r3, r4
 8000924:	80fb      	strh	r3, [r7, #6]
 8000926:	4603      	mov	r3, r0
 8000928:	717b      	strb	r3, [r7, #5]
 800092a:	460b      	mov	r3, r1
 800092c:	713b      	strb	r3, [r7, #4]
 800092e:	4613      	mov	r3, r2
 8000930:	70fb      	strb	r3, [r7, #3]
	uint8_t cb_temp = 0x04;
 8000932:	2304      	movs	r3, #4
 8000934:	73fb      	strb	r3, [r7, #15]
	cb_temp |= (socket_nbr << 5);
 8000936:	793b      	ldrb	r3, [r7, #4]
 8000938:	015b      	lsls	r3, r3, #5
 800093a:	b25a      	sxtb	r2, r3
 800093c:	f997 300f 	ldrsb.w	r3, [r7, #15]
 8000940:	4313      	orrs	r3, r2
 8000942:	b25b      	sxtb	r3, r3
 8000944:	73fb      	strb	r3, [r7, #15]
	cb_temp |= (block << 3);
 8000946:	78fb      	ldrb	r3, [r7, #3]
 8000948:	00db      	lsls	r3, r3, #3
 800094a:	b25a      	sxtb	r2, r3
 800094c:	f997 300f 	ldrsb.w	r3, [r7, #15]
 8000950:	4313      	orrs	r3, r2
 8000952:	b25b      	sxtb	r3, r3
 8000954:	73fb      	strb	r3, [r7, #15]
	SPI_Eth_SS(ON);			// NSS Slave Enable
 8000956:	2001      	movs	r0, #1
 8000958:	f7ff ff3a 	bl	80007d0 <SPI_Eth_SS>
	SPI_Eth_RT(adr>>8);		// Send upper address half
 800095c:	88fb      	ldrh	r3, [r7, #6]
 800095e:	0a1b      	lsrs	r3, r3, #8
 8000960:	b29b      	uxth	r3, r3
 8000962:	b2db      	uxtb	r3, r3
 8000964:	4618      	mov	r0, r3
 8000966:	f7ff ff53 	bl	8000810 <SPI_Eth_RT>
	SPI_Eth_RT(adr);		// Send lower address half
 800096a:	88fb      	ldrh	r3, [r7, #6]
 800096c:	b2db      	uxtb	r3, r3
 800096e:	4618      	mov	r0, r3
 8000970:	f7ff ff4e 	bl	8000810 <SPI_Eth_RT>
	SPI_Eth_RT(cb_temp);	// Send Control Byte
 8000974:	7bfb      	ldrb	r3, [r7, #15]
 8000976:	4618      	mov	r0, r3
 8000978:	f7ff ff4a 	bl	8000810 <SPI_Eth_RT>
	SPI_Eth_RT(val);		// Send val to be written in the register
 800097c:	797b      	ldrb	r3, [r7, #5]
 800097e:	4618      	mov	r0, r3
 8000980:	f7ff ff46 	bl	8000810 <SPI_Eth_RT>
	SPI_Eth_SS(OFF);
 8000984:	2000      	movs	r0, #0
 8000986:	f7ff ff23 	bl	80007d0 <SPI_Eth_SS>
}
 800098a:	bf00      	nop
 800098c:	3714      	adds	r7, #20
 800098e:	46bd      	mov	sp, r7
 8000990:	bd90      	pop	{r4, r7, pc}

08000992 <W6100_INIT>:

void W6100_INIT(void) {
 8000992:	b580      	push	{r7, lr}
 8000994:	af00      	add	r7, sp, #0
	/* *** W6100 Init *** */
	SPI_W6100_WCR(NETLCKR, 0x3a);	// NETLCKR		Network settings unlock
 8000996:	213a      	movs	r1, #58	; 0x3a
 8000998:	f244 10f5 	movw	r0, #16885	; 0x41f5
 800099c:	f7ff ff5a 	bl	8000854 <SPI_W6100_WCR>

	SPI_W6100_WCR(SHAR0, MAC0);	// SHAR[5:0]	Set hardware MAC address
 80009a0:	2111      	movs	r1, #17
 80009a2:	f244 1020 	movw	r0, #16672	; 0x4120
 80009a6:	f7ff ff55 	bl	8000854 <SPI_W6100_WCR>
	SPI_W6100_WCR(SHAR1, MAC1);
 80009aa:	2122      	movs	r1, #34	; 0x22
 80009ac:	f244 1021 	movw	r0, #16673	; 0x4121
 80009b0:	f7ff ff50 	bl	8000854 <SPI_W6100_WCR>
	SPI_W6100_WCR(SHAR2, MAC2);
 80009b4:	2133      	movs	r1, #51	; 0x33
 80009b6:	f244 1022 	movw	r0, #16674	; 0x4122
 80009ba:	f7ff ff4b 	bl	8000854 <SPI_W6100_WCR>
	SPI_W6100_WCR(SHAR3, MAC3);
 80009be:	21aa      	movs	r1, #170	; 0xaa
 80009c0:	f244 1023 	movw	r0, #16675	; 0x4123
 80009c4:	f7ff ff46 	bl	8000854 <SPI_W6100_WCR>
	SPI_W6100_WCR(SHAR4, MAC4);
 80009c8:	21bb      	movs	r1, #187	; 0xbb
 80009ca:	f244 1024 	movw	r0, #16676	; 0x4124
 80009ce:	f7ff ff41 	bl	8000854 <SPI_W6100_WCR>
	SPI_W6100_WCR(SHAR5, MAC5);
 80009d2:	21cc      	movs	r1, #204	; 0xcc
 80009d4:	f244 1025 	movw	r0, #16677	; 0x4125
 80009d8:	f7ff ff3c 	bl	8000854 <SPI_W6100_WCR>

	SPI_W6100_WCR(GAR0, GIP0);	// GAR[0:3]		Gateway IP address 192.168.0.1
 80009dc:	21c0      	movs	r1, #192	; 0xc0
 80009de:	f244 1030 	movw	r0, #16688	; 0x4130
 80009e2:	f7ff ff37 	bl	8000854 <SPI_W6100_WCR>
	SPI_W6100_WCR(GAR1, GIP1);
 80009e6:	21a8      	movs	r1, #168	; 0xa8
 80009e8:	f244 1031 	movw	r0, #16689	; 0x4131
 80009ec:	f7ff ff32 	bl	8000854 <SPI_W6100_WCR>
	SPI_W6100_WCR(GAR2, GIP2);
 80009f0:	2100      	movs	r1, #0
 80009f2:	f244 1032 	movw	r0, #16690	; 0x4132
 80009f6:	f7ff ff2d 	bl	8000854 <SPI_W6100_WCR>
	SPI_W6100_WCR(GAR3, GIP3);
 80009fa:	2101      	movs	r1, #1
 80009fc:	f244 1033 	movw	r0, #16691	; 0x4133
 8000a00:	f7ff ff28 	bl	8000854 <SPI_W6100_WCR>

	SPI_W6100_WCR(SUBR0, SBM0);	// SUBR[0:3]	Subnet mask address 255:255:255:0
 8000a04:	21ff      	movs	r1, #255	; 0xff
 8000a06:	f244 1034 	movw	r0, #16692	; 0x4134
 8000a0a:	f7ff ff23 	bl	8000854 <SPI_W6100_WCR>
	SPI_W6100_WCR(SUBR1, SBM1);
 8000a0e:	21ff      	movs	r1, #255	; 0xff
 8000a10:	f244 1035 	movw	r0, #16693	; 0x4135
 8000a14:	f7ff ff1e 	bl	8000854 <SPI_W6100_WCR>
	SPI_W6100_WCR(SUBR2, SBM2);
 8000a18:	21ff      	movs	r1, #255	; 0xff
 8000a1a:	f244 1036 	movw	r0, #16694	; 0x4136
 8000a1e:	f7ff ff19 	bl	8000854 <SPI_W6100_WCR>
	SPI_W6100_WCR(SUBR3, SBM3);
 8000a22:	2100      	movs	r1, #0
 8000a24:	f244 1037 	movw	r0, #16695	; 0x4137
 8000a28:	f7ff ff14 	bl	8000854 <SPI_W6100_WCR>

	SPI_W6100_WCR(SIPR0, IPV0);	// SIPR[0:3]	IPv4 Source IP Address 192.168.0.27
 8000a2c:	21c0      	movs	r1, #192	; 0xc0
 8000a2e:	f244 1038 	movw	r0, #16696	; 0x4138
 8000a32:	f7ff ff0f 	bl	8000854 <SPI_W6100_WCR>
	SPI_W6100_WCR(SIPR1, IPV1);
 8000a36:	21a8      	movs	r1, #168	; 0xa8
 8000a38:	f244 1039 	movw	r0, #16697	; 0x4139
 8000a3c:	f7ff ff0a 	bl	8000854 <SPI_W6100_WCR>
	SPI_W6100_WCR(SIPR2, IPV2);
 8000a40:	2100      	movs	r1, #0
 8000a42:	f244 103a 	movw	r0, #16698	; 0x413a
 8000a46:	f7ff ff05 	bl	8000854 <SPI_W6100_WCR>
	SPI_W6100_WCR(SIPR3, IPV3);
 8000a4a:	211b      	movs	r1, #27
 8000a4c:	f244 103b 	movw	r0, #16699	; 0x413b
 8000a50:	f7ff ff00 	bl	8000854 <SPI_W6100_WCR>

	SPI_W6100_WCR(LLAR0, 0xfe);	// Link Local Address, FE80::1322:33FF:FEAA:BBCC
 8000a54:	21fe      	movs	r1, #254	; 0xfe
 8000a56:	f244 1040 	movw	r0, #16704	; 0x4140
 8000a5a:	f7ff fefb 	bl	8000854 <SPI_W6100_WCR>
	SPI_W6100_WCR(LLAR1, 0x80);
 8000a5e:	2180      	movs	r1, #128	; 0x80
 8000a60:	f244 1041 	movw	r0, #16705	; 0x4141
 8000a64:	f7ff fef6 	bl	8000854 <SPI_W6100_WCR>
	SPI_W6100_WCR(LLAR2, 0x00);
 8000a68:	2100      	movs	r1, #0
 8000a6a:	f244 1042 	movw	r0, #16706	; 0x4142
 8000a6e:	f7ff fef1 	bl	8000854 <SPI_W6100_WCR>
	SPI_W6100_WCR(LLAR3, 0x01);
 8000a72:	2101      	movs	r1, #1
 8000a74:	f244 1043 	movw	r0, #16707	; 0x4143
 8000a78:	f7ff feec 	bl	8000854 <SPI_W6100_WCR>
	SPI_W6100_WCR(LLAR4, 0x00);
 8000a7c:	2100      	movs	r1, #0
 8000a7e:	f244 1044 	movw	r0, #16708	; 0x4144
 8000a82:	f7ff fee7 	bl	8000854 <SPI_W6100_WCR>
	SPI_W6100_WCR(LLAR5, 0x00);
 8000a86:	2100      	movs	r1, #0
 8000a88:	f244 1045 	movw	r0, #16709	; 0x4145
 8000a8c:	f7ff fee2 	bl	8000854 <SPI_W6100_WCR>
	SPI_W6100_WCR(LLAR6, 0x00);
 8000a90:	2100      	movs	r1, #0
 8000a92:	f244 1046 	movw	r0, #16710	; 0x4146
 8000a96:	f7ff fedd 	bl	8000854 <SPI_W6100_WCR>
	SPI_W6100_WCR(LLAR7, 0x00);
 8000a9a:	2100      	movs	r1, #0
 8000a9c:	f244 1047 	movw	r0, #16711	; 0x4147
 8000aa0:	f7ff fed8 	bl	8000854 <SPI_W6100_WCR>
	SPI_W6100_WCR(LLAR8, 0x13);
 8000aa4:	2113      	movs	r1, #19
 8000aa6:	f244 1048 	movw	r0, #16712	; 0x4148
 8000aaa:	f7ff fed3 	bl	8000854 <SPI_W6100_WCR>
	SPI_W6100_WCR(LLAR9, 0x22);
 8000aae:	2122      	movs	r1, #34	; 0x22
 8000ab0:	f244 1049 	movw	r0, #16713	; 0x4149
 8000ab4:	f7ff fece 	bl	8000854 <SPI_W6100_WCR>
	SPI_W6100_WCR(LLAR10, 0x33);
 8000ab8:	2133      	movs	r1, #51	; 0x33
 8000aba:	f244 104a 	movw	r0, #16714	; 0x414a
 8000abe:	f7ff fec9 	bl	8000854 <SPI_W6100_WCR>
	SPI_W6100_WCR(LLAR11, 0xff);
 8000ac2:	21ff      	movs	r1, #255	; 0xff
 8000ac4:	f244 104b 	movw	r0, #16715	; 0x414b
 8000ac8:	f7ff fec4 	bl	8000854 <SPI_W6100_WCR>
	SPI_W6100_WCR(LLAR12, 0xfe);
 8000acc:	21fe      	movs	r1, #254	; 0xfe
 8000ace:	f244 104c 	movw	r0, #16716	; 0x414c
 8000ad2:	f7ff febf 	bl	8000854 <SPI_W6100_WCR>
	SPI_W6100_WCR(LLAR13, 0xaa);
 8000ad6:	21aa      	movs	r1, #170	; 0xaa
 8000ad8:	f244 104d 	movw	r0, #16717	; 0x414d
 8000adc:	f7ff feba 	bl	8000854 <SPI_W6100_WCR>
	SPI_W6100_WCR(LLAR14, 0xbb);
 8000ae0:	21bb      	movs	r1, #187	; 0xbb
 8000ae2:	f244 104e 	movw	r0, #16718	; 0x414e
 8000ae6:	f7ff feb5 	bl	8000854 <SPI_W6100_WCR>
	SPI_W6100_WCR(LLAR15, 0xcc);
 8000aea:	21cc      	movs	r1, #204	; 0xcc
 8000aec:	f244 104f 	movw	r0, #16719	; 0x414f
 8000af0:	f7ff feb0 	bl	8000854 <SPI_W6100_WCR>

	SPI_W6100_WCR(GUAR0, 0x20);	// Global Unicast Address, 2001:0DB8:E001::1222:33FF:FEAA:BBCC
 8000af4:	2120      	movs	r1, #32
 8000af6:	f244 1050 	movw	r0, #16720	; 0x4150
 8000afa:	f7ff feab 	bl	8000854 <SPI_W6100_WCR>
	SPI_W6100_WCR(GUAR1, 0x01);
 8000afe:	2101      	movs	r1, #1
 8000b00:	f244 1051 	movw	r0, #16721	; 0x4151
 8000b04:	f7ff fea6 	bl	8000854 <SPI_W6100_WCR>
	SPI_W6100_WCR(GUAR2, 0x0d);
 8000b08:	210d      	movs	r1, #13
 8000b0a:	f244 1052 	movw	r0, #16722	; 0x4152
 8000b0e:	f7ff fea1 	bl	8000854 <SPI_W6100_WCR>
	SPI_W6100_WCR(GUAR3, 0xb8);
 8000b12:	21b8      	movs	r1, #184	; 0xb8
 8000b14:	f244 1053 	movw	r0, #16723	; 0x4153
 8000b18:	f7ff fe9c 	bl	8000854 <SPI_W6100_WCR>
	SPI_W6100_WCR(GUAR4, 0xe0);
 8000b1c:	21e0      	movs	r1, #224	; 0xe0
 8000b1e:	f244 1054 	movw	r0, #16724	; 0x4154
 8000b22:	f7ff fe97 	bl	8000854 <SPI_W6100_WCR>
	SPI_W6100_WCR(GUAR5, 0x01);
 8000b26:	2101      	movs	r1, #1
 8000b28:	f244 1055 	movw	r0, #16725	; 0x4155
 8000b2c:	f7ff fe92 	bl	8000854 <SPI_W6100_WCR>
	SPI_W6100_WCR(GUAR6, 0x00);
 8000b30:	2100      	movs	r1, #0
 8000b32:	f244 1056 	movw	r0, #16726	; 0x4156
 8000b36:	f7ff fe8d 	bl	8000854 <SPI_W6100_WCR>
	SPI_W6100_WCR(GUAR7, 0x00);
 8000b3a:	2100      	movs	r1, #0
 8000b3c:	f244 1057 	movw	r0, #16727	; 0x4157
 8000b40:	f7ff fe88 	bl	8000854 <SPI_W6100_WCR>
	SPI_W6100_WCR(GUAR8, 0x13);
 8000b44:	2113      	movs	r1, #19
 8000b46:	f244 1058 	movw	r0, #16728	; 0x4158
 8000b4a:	f7ff fe83 	bl	8000854 <SPI_W6100_WCR>
	SPI_W6100_WCR(GUAR9, 0x22);
 8000b4e:	2122      	movs	r1, #34	; 0x22
 8000b50:	f244 1059 	movw	r0, #16729	; 0x4159
 8000b54:	f7ff fe7e 	bl	8000854 <SPI_W6100_WCR>
	SPI_W6100_WCR(GUAR10, 0x33);
 8000b58:	2133      	movs	r1, #51	; 0x33
 8000b5a:	f244 105a 	movw	r0, #16730	; 0x415a
 8000b5e:	f7ff fe79 	bl	8000854 <SPI_W6100_WCR>
	SPI_W6100_WCR(GUAR11, 0xff);
 8000b62:	21ff      	movs	r1, #255	; 0xff
 8000b64:	f244 105b 	movw	r0, #16731	; 0x415b
 8000b68:	f7ff fe74 	bl	8000854 <SPI_W6100_WCR>
	SPI_W6100_WCR(GUAR12, 0xfe);
 8000b6c:	21fe      	movs	r1, #254	; 0xfe
 8000b6e:	f244 105c 	movw	r0, #16732	; 0x415c
 8000b72:	f7ff fe6f 	bl	8000854 <SPI_W6100_WCR>
	SPI_W6100_WCR(GUAR13, 0xaa);
 8000b76:	21aa      	movs	r1, #170	; 0xaa
 8000b78:	f244 105d 	movw	r0, #16733	; 0x415d
 8000b7c:	f7ff fe6a 	bl	8000854 <SPI_W6100_WCR>
	SPI_W6100_WCR(GUAR14, 0xbb);
 8000b80:	21bb      	movs	r1, #187	; 0xbb
 8000b82:	f244 105e 	movw	r0, #16734	; 0x415e
 8000b86:	f7ff fe65 	bl	8000854 <SPI_W6100_WCR>
	SPI_W6100_WCR(GUAR15, 0xcc);
 8000b8a:	21cc      	movs	r1, #204	; 0xcc
 8000b8c:	f244 105f 	movw	r0, #16735	; 0x415f
 8000b90:	f7ff fe60 	bl	8000854 <SPI_W6100_WCR>

	SPI_W6100_WCR(SUB6R0, 0xff);	// IPv6 Subnet Prefix, FFFF:FFFF::
 8000b94:	21ff      	movs	r1, #255	; 0xff
 8000b96:	f244 1060 	movw	r0, #16736	; 0x4160
 8000b9a:	f7ff fe5b 	bl	8000854 <SPI_W6100_WCR>
	SPI_W6100_WCR(SUB6R1, 0xff);
 8000b9e:	21ff      	movs	r1, #255	; 0xff
 8000ba0:	f244 1061 	movw	r0, #16737	; 0x4161
 8000ba4:	f7ff fe56 	bl	8000854 <SPI_W6100_WCR>
	SPI_W6100_WCR(SUB6R2, 0xff);
 8000ba8:	21ff      	movs	r1, #255	; 0xff
 8000baa:	f244 1062 	movw	r0, #16738	; 0x4162
 8000bae:	f7ff fe51 	bl	8000854 <SPI_W6100_WCR>
	SPI_W6100_WCR(SUB6R3, 0xff);
 8000bb2:	21ff      	movs	r1, #255	; 0xff
 8000bb4:	f244 1063 	movw	r0, #16739	; 0x4163
 8000bb8:	f7ff fe4c 	bl	8000854 <SPI_W6100_WCR>
	SPI_W6100_WCR(SUB6R4, 0xff);
 8000bbc:	21ff      	movs	r1, #255	; 0xff
 8000bbe:	f244 1064 	movw	r0, #16740	; 0x4164
 8000bc2:	f7ff fe47 	bl	8000854 <SPI_W6100_WCR>
	SPI_W6100_WCR(SUB6R5, 0xff);
 8000bc6:	21ff      	movs	r1, #255	; 0xff
 8000bc8:	f244 1065 	movw	r0, #16741	; 0x4165
 8000bcc:	f7ff fe42 	bl	8000854 <SPI_W6100_WCR>
	SPI_W6100_WCR(SUB6R6, 0xff);
 8000bd0:	21ff      	movs	r1, #255	; 0xff
 8000bd2:	f244 1066 	movw	r0, #16742	; 0x4166
 8000bd6:	f7ff fe3d 	bl	8000854 <SPI_W6100_WCR>
	SPI_W6100_WCR(SUB6R7, 0xff);
 8000bda:	21ff      	movs	r1, #255	; 0xff
 8000bdc:	f244 1067 	movw	r0, #16743	; 0x4167
 8000be0:	f7ff fe38 	bl	8000854 <SPI_W6100_WCR>
	SPI_W6100_WCR(SUB6R8, 0x00);
 8000be4:	2100      	movs	r1, #0
 8000be6:	f244 1068 	movw	r0, #16744	; 0x4168
 8000bea:	f7ff fe33 	bl	8000854 <SPI_W6100_WCR>
	SPI_W6100_WCR(SUB6R9, 0x00);
 8000bee:	2100      	movs	r1, #0
 8000bf0:	f244 1069 	movw	r0, #16745	; 0x4169
 8000bf4:	f7ff fe2e 	bl	8000854 <SPI_W6100_WCR>
	SPI_W6100_WCR(SUB6R10, 0x00);
 8000bf8:	2100      	movs	r1, #0
 8000bfa:	f244 106a 	movw	r0, #16746	; 0x416a
 8000bfe:	f7ff fe29 	bl	8000854 <SPI_W6100_WCR>
	SPI_W6100_WCR(SUB6R11, 0x00);
 8000c02:	2100      	movs	r1, #0
 8000c04:	f244 106b 	movw	r0, #16747	; 0x416b
 8000c08:	f7ff fe24 	bl	8000854 <SPI_W6100_WCR>
	SPI_W6100_WCR(SUB6R12, 0x00);
 8000c0c:	2100      	movs	r1, #0
 8000c0e:	f244 106c 	movw	r0, #16748	; 0x416c
 8000c12:	f7ff fe1f 	bl	8000854 <SPI_W6100_WCR>
	SPI_W6100_WCR(SUB6R13, 0x00);
 8000c16:	2100      	movs	r1, #0
 8000c18:	f244 106d 	movw	r0, #16749	; 0x416d
 8000c1c:	f7ff fe1a 	bl	8000854 <SPI_W6100_WCR>
	SPI_W6100_WCR(SUB6R14, 0x00);
 8000c20:	2100      	movs	r1, #0
 8000c22:	f244 106e 	movw	r0, #16750	; 0x416e
 8000c26:	f7ff fe15 	bl	8000854 <SPI_W6100_WCR>
	SPI_W6100_WCR(SUB6R15, 0x00);
 8000c2a:	2100      	movs	r1, #0
 8000c2c:	f244 106f 	movw	r0, #16751	; 0x416f
 8000c30:	f7ff fe10 	bl	8000854 <SPI_W6100_WCR>

	SPI_W6100_WCR(GA6R0, 0xfe);	// IPv6 Gateway Address, FFFF:FFFF::
 8000c34:	21fe      	movs	r1, #254	; 0xfe
 8000c36:	f244 1070 	movw	r0, #16752	; 0x4170
 8000c3a:	f7ff fe0b 	bl	8000854 <SPI_W6100_WCR>
	SPI_W6100_WCR(GA6R1, 0x80);
 8000c3e:	2180      	movs	r1, #128	; 0x80
 8000c40:	f244 1071 	movw	r0, #16753	; 0x4171
 8000c44:	f7ff fe06 	bl	8000854 <SPI_W6100_WCR>
	SPI_W6100_WCR(GA6R2, 0x00);
 8000c48:	2100      	movs	r1, #0
 8000c4a:	f244 1072 	movw	r0, #16754	; 0x4172
 8000c4e:	f7ff fe01 	bl	8000854 <SPI_W6100_WCR>
	SPI_W6100_WCR(GA6R3, 0x00);
 8000c52:	2100      	movs	r1, #0
 8000c54:	f244 1073 	movw	r0, #16755	; 0x4173
 8000c58:	f7ff fdfc 	bl	8000854 <SPI_W6100_WCR>
	SPI_W6100_WCR(GA6R4, 0x00);
 8000c5c:	2100      	movs	r1, #0
 8000c5e:	f244 1074 	movw	r0, #16756	; 0x4174
 8000c62:	f7ff fdf7 	bl	8000854 <SPI_W6100_WCR>
	SPI_W6100_WCR(GA6R5, 0x00);
 8000c66:	2100      	movs	r1, #0
 8000c68:	f244 1075 	movw	r0, #16757	; 0x4175
 8000c6c:	f7ff fdf2 	bl	8000854 <SPI_W6100_WCR>
	SPI_W6100_WCR(GA6R6, 0x00);
 8000c70:	2100      	movs	r1, #0
 8000c72:	f244 1076 	movw	r0, #16758	; 0x4176
 8000c76:	f7ff fded 	bl	8000854 <SPI_W6100_WCR>
	SPI_W6100_WCR(GA6R7, 0x00);
 8000c7a:	2100      	movs	r1, #0
 8000c7c:	f244 1077 	movw	r0, #16759	; 0x4177
 8000c80:	f7ff fde8 	bl	8000854 <SPI_W6100_WCR>
	SPI_W6100_WCR(GA6R8, 0x13);
 8000c84:	2113      	movs	r1, #19
 8000c86:	f244 1078 	movw	r0, #16760	; 0x4178
 8000c8a:	f7ff fde3 	bl	8000854 <SPI_W6100_WCR>
	SPI_W6100_WCR(GA6R9, 0x22);
 8000c8e:	2122      	movs	r1, #34	; 0x22
 8000c90:	f244 1079 	movw	r0, #16761	; 0x4179
 8000c94:	f7ff fdde 	bl	8000854 <SPI_W6100_WCR>
	SPI_W6100_WCR(GA6R10, 0x33);
 8000c98:	2133      	movs	r1, #51	; 0x33
 8000c9a:	f244 107a 	movw	r0, #16762	; 0x417a
 8000c9e:	f7ff fdd9 	bl	8000854 <SPI_W6100_WCR>
	SPI_W6100_WCR(GA6R11, 0xff);
 8000ca2:	21ff      	movs	r1, #255	; 0xff
 8000ca4:	f244 107b 	movw	r0, #16763	; 0x417b
 8000ca8:	f7ff fdd4 	bl	8000854 <SPI_W6100_WCR>
	SPI_W6100_WCR(GA6R12, 0xfe);
 8000cac:	21fe      	movs	r1, #254	; 0xfe
 8000cae:	f244 107c 	movw	r0, #16764	; 0x417c
 8000cb2:	f7ff fdcf 	bl	8000854 <SPI_W6100_WCR>
	SPI_W6100_WCR(GA6R13, 0x44);
 8000cb6:	2144      	movs	r1, #68	; 0x44
 8000cb8:	f244 107d 	movw	r0, #16765	; 0x417d
 8000cbc:	f7ff fdca 	bl	8000854 <SPI_W6100_WCR>
	SPI_W6100_WCR(GA6R14, 0x55);
 8000cc0:	2155      	movs	r1, #85	; 0x55
 8000cc2:	f244 107e 	movw	r0, #16766	; 0x417e
 8000cc6:	f7ff fdc5 	bl	8000854 <SPI_W6100_WCR>
	SPI_W6100_WCR(GA6R15, 0x66);
 8000cca:	2166      	movs	r1, #102	; 0x66
 8000ccc:	f244 107f 	movw	r0, #16767	; 0x417f
 8000cd0:	f7ff fdc0 	bl	8000854 <SPI_W6100_WCR>

	SPI_W6100_WCR(NETLCKR, 0x00);	// NETLCKR		Network settings lock
 8000cd4:	2100      	movs	r1, #0
 8000cd6:	f244 10f5 	movw	r0, #16885	; 0x41f5
 8000cda:	f7ff fdbb 	bl	8000854 <SPI_W6100_WCR>
}
 8000cde:	bf00      	nop
 8000ce0:	bd80      	pop	{r7, pc}
	...

08000ce4 <W6100_OpenTCPSocket>:




uint32_t W6100_OpenTCPSocket (uint8_t sck_nbr) {
 8000ce4:	b580      	push	{r7, lr}
 8000ce6:	b084      	sub	sp, #16
 8000ce8:	af00      	add	r7, sp, #0
 8000cea:	4603      	mov	r3, r0
 8000cec:	71fb      	strb	r3, [r7, #7]
	uint32_t dest_adr;
	/* *** Open Socket as TCP4 *** */
	SPI_W6100_WSOCK(Sn_MR, 0x01, sck_nbr, REG);				// Set TCP4 mode
 8000cee:	79fa      	ldrb	r2, [r7, #7]
 8000cf0:	2301      	movs	r3, #1
 8000cf2:	2101      	movs	r1, #1
 8000cf4:	2000      	movs	r0, #0
 8000cf6:	f7ff fe0d 	bl	8000914 <SPI_W6100_WSOCK>
	SPI_W6100_WSOCK(Sn_PORTR0, 0x13, sck_nbr, REG);			// Set PORT 5000
 8000cfa:	79fa      	ldrb	r2, [r7, #7]
 8000cfc:	2301      	movs	r3, #1
 8000cfe:	2113      	movs	r1, #19
 8000d00:	f44f 708a 	mov.w	r0, #276	; 0x114
 8000d04:	f7ff fe06 	bl	8000914 <SPI_W6100_WSOCK>
	SPI_W6100_WSOCK(Sn_PORTR1, 0x88, sck_nbr, REG);
 8000d08:	79fa      	ldrb	r2, [r7, #7]
 8000d0a:	2301      	movs	r3, #1
 8000d0c:	2188      	movs	r1, #136	; 0x88
 8000d0e:	f240 1015 	movw	r0, #277	; 0x115
 8000d12:	f7ff fdff 	bl	8000914 <SPI_W6100_WSOCK>
	SPI_W6100_WSOCK(Sn_CR, 0x01, sck_nbr, REG);				// Set OPEN command
 8000d16:	79fa      	ldrb	r2, [r7, #7]
 8000d18:	2301      	movs	r3, #1
 8000d1a:	2101      	movs	r1, #1
 8000d1c:	2010      	movs	r0, #16
 8000d1e:	f7ff fdf9 	bl	8000914 <SPI_W6100_WSOCK>
	while ((SPI_W6100_RSOCK(Sn_CR, sck_nbr, REG)) != 0x00);	// Wait until OPEN command is cleared
 8000d22:	bf00      	nop
 8000d24:	79fb      	ldrb	r3, [r7, #7]
 8000d26:	2201      	movs	r2, #1
 8000d28:	4619      	mov	r1, r3
 8000d2a:	2010      	movs	r0, #16
 8000d2c:	f7ff fdb7 	bl	800089e <SPI_W6100_RSOCK>
 8000d30:	4603      	mov	r3, r0
 8000d32:	2b00      	cmp	r3, #0
 8000d34:	d1f6      	bne.n	8000d24 <W6100_OpenTCPSocket+0x40>


	SPI_W6100_WSOCK(Sn_CR, 0x02, sck_nbr, REG);				// Set LISTEN command
 8000d36:	79fa      	ldrb	r2, [r7, #7]
 8000d38:	2301      	movs	r3, #1
 8000d3a:	2102      	movs	r1, #2
 8000d3c:	2010      	movs	r0, #16
 8000d3e:	f7ff fde9 	bl	8000914 <SPI_W6100_WSOCK>
	while ((SPI_W6100_RSOCK(Sn_CR, sck_nbr, REG)) != 0x00);	// Wait until LISTEN command is cleared
 8000d42:	bf00      	nop
 8000d44:	79fb      	ldrb	r3, [r7, #7]
 8000d46:	2201      	movs	r2, #1
 8000d48:	4619      	mov	r1, r3
 8000d4a:	2010      	movs	r0, #16
 8000d4c:	f7ff fda7 	bl	800089e <SPI_W6100_RSOCK>
 8000d50:	4603      	mov	r3, r0
 8000d52:	2b00      	cmp	r3, #0
 8000d54:	d1f6      	bne.n	8000d44 <W6100_OpenTCPSocket+0x60>

	// CONNECT NOW
	while ((SPI_W6100_RSOCK(Sn_SR, sck_nbr, REG)) != 0x17);	// Wait until SOCKET ESTABLISHED
 8000d56:	bf00      	nop
 8000d58:	79fb      	ldrb	r3, [r7, #7]
 8000d5a:	2201      	movs	r2, #1
 8000d5c:	4619      	mov	r1, r3
 8000d5e:	2030      	movs	r0, #48	; 0x30
 8000d60:	f7ff fd9d 	bl	800089e <SPI_W6100_RSOCK>
 8000d64:	4603      	mov	r3, r0
 8000d66:	2b17      	cmp	r3, #23
 8000d68:	d1f6      	bne.n	8000d58 <W6100_OpenTCPSocket+0x74>

	/* HARDWARE RESPONSE ON THE SOCKET OPEN */
	GPIOC->ODR &= ~GPIO_ODR_OD8;
 8000d6a:	4b23      	ldr	r3, [pc, #140]	; (8000df8 <W6100_OpenTCPSocket+0x114>)
 8000d6c:	695b      	ldr	r3, [r3, #20]
 8000d6e:	4a22      	ldr	r2, [pc, #136]	; (8000df8 <W6100_OpenTCPSocket+0x114>)
 8000d70:	f423 7380 	bic.w	r3, r3, #256	; 0x100
 8000d74:	6153      	str	r3, [r2, #20]
	GPIOC->ODR |= GPIO_ODR_OD9;
 8000d76:	4b20      	ldr	r3, [pc, #128]	; (8000df8 <W6100_OpenTCPSocket+0x114>)
 8000d78:	695b      	ldr	r3, [r3, #20]
 8000d7a:	4a1f      	ldr	r2, [pc, #124]	; (8000df8 <W6100_OpenTCPSocket+0x114>)
 8000d7c:	f443 7300 	orr.w	r3, r3, #512	; 0x200
 8000d80:	6153      	str	r3, [r2, #20]
	/* END OF HARDWARE RESPONSE */							// Socket established

	SPI_W6100_WSOCK(Sn_IRCLR, 0x01, sck_nbr, REG);			// Interrupt clear
 8000d82:	79fa      	ldrb	r2, [r7, #7]
 8000d84:	2301      	movs	r3, #1
 8000d86:	2101      	movs	r1, #1
 8000d88:	2028      	movs	r0, #40	; 0x28
 8000d8a:	f7ff fdc3 	bl	8000914 <SPI_W6100_WSOCK>

	// Read destination address
	dest_adr = (SPI_W6100_RSOCK(Sn_DIPR0, sck_nbr, REG) << 24);
 8000d8e:	79fb      	ldrb	r3, [r7, #7]
 8000d90:	2201      	movs	r2, #1
 8000d92:	4619      	mov	r1, r3
 8000d94:	f44f 7090 	mov.w	r0, #288	; 0x120
 8000d98:	f7ff fd81 	bl	800089e <SPI_W6100_RSOCK>
 8000d9c:	4603      	mov	r3, r0
 8000d9e:	061b      	lsls	r3, r3, #24
 8000da0:	60fb      	str	r3, [r7, #12]
	dest_adr |= (SPI_W6100_RSOCK(Sn_DIPR1, sck_nbr, REG) << 16);
 8000da2:	79fb      	ldrb	r3, [r7, #7]
 8000da4:	2201      	movs	r2, #1
 8000da6:	4619      	mov	r1, r3
 8000da8:	f240 1021 	movw	r0, #289	; 0x121
 8000dac:	f7ff fd77 	bl	800089e <SPI_W6100_RSOCK>
 8000db0:	4603      	mov	r3, r0
 8000db2:	041b      	lsls	r3, r3, #16
 8000db4:	461a      	mov	r2, r3
 8000db6:	68fb      	ldr	r3, [r7, #12]
 8000db8:	4313      	orrs	r3, r2
 8000dba:	60fb      	str	r3, [r7, #12]
	dest_adr |= (SPI_W6100_RSOCK(Sn_DIPR2, sck_nbr, REG) << 8);
 8000dbc:	79fb      	ldrb	r3, [r7, #7]
 8000dbe:	2201      	movs	r2, #1
 8000dc0:	4619      	mov	r1, r3
 8000dc2:	f44f 7091 	mov.w	r0, #290	; 0x122
 8000dc6:	f7ff fd6a 	bl	800089e <SPI_W6100_RSOCK>
 8000dca:	4603      	mov	r3, r0
 8000dcc:	021b      	lsls	r3, r3, #8
 8000dce:	461a      	mov	r2, r3
 8000dd0:	68fb      	ldr	r3, [r7, #12]
 8000dd2:	4313      	orrs	r3, r2
 8000dd4:	60fb      	str	r3, [r7, #12]
	dest_adr |= SPI_W6100_RSOCK(Sn_DIPR3, sck_nbr, REG);
 8000dd6:	79fb      	ldrb	r3, [r7, #7]
 8000dd8:	2201      	movs	r2, #1
 8000dda:	4619      	mov	r1, r3
 8000ddc:	f240 1023 	movw	r0, #291	; 0x123
 8000de0:	f7ff fd5d 	bl	800089e <SPI_W6100_RSOCK>
 8000de4:	4603      	mov	r3, r0
 8000de6:	461a      	mov	r2, r3
 8000de8:	68fb      	ldr	r3, [r7, #12]
 8000dea:	4313      	orrs	r3, r2
 8000dec:	60fb      	str	r3, [r7, #12]

	return dest_adr;	// Return destination address
 8000dee:	68fb      	ldr	r3, [r7, #12]
}
 8000df0:	4618      	mov	r0, r3
 8000df2:	3710      	adds	r7, #16
 8000df4:	46bd      	mov	sp, r7
 8000df6:	bd80      	pop	{r7, pc}
 8000df8:	40020800 	.word	0x40020800

08000dfc <W6100_ReceiveData>:




uint8_t W6100_ReceiveData(uint8_t sck_nbr, uint32_t dest_adr, uint8_t * tab, uint8_t size) {
 8000dfc:	b590      	push	{r4, r7, lr}
 8000dfe:	b08b      	sub	sp, #44	; 0x2c
 8000e00:	af00      	add	r7, sp, #0
 8000e02:	60b9      	str	r1, [r7, #8]
 8000e04:	607a      	str	r2, [r7, #4]
 8000e06:	461a      	mov	r2, r3
 8000e08:	4603      	mov	r3, r0
 8000e0a:	73fb      	strb	r3, [r7, #15]
 8000e0c:	4613      	mov	r3, r2
 8000e0e:	73bb      	strb	r3, [r7, #14]
	uint8_t i;
	uint32_t get_size, gSn_RX_MAX, get_start_address, Sn_RX_RD_temp;

	if ((SPI_W6100_RSOCK(Sn_SR, sck_nbr, REG)) == 0x1c) {								// Check if socket close request pending
 8000e10:	7bfb      	ldrb	r3, [r7, #15]
 8000e12:	2201      	movs	r2, #1
 8000e14:	4619      	mov	r1, r3
 8000e16:	2030      	movs	r0, #48	; 0x30
 8000e18:	f7ff fd41 	bl	800089e <SPI_W6100_RSOCK>
 8000e1c:	4603      	mov	r3, r0
 8000e1e:	2b1c      	cmp	r3, #28
 8000e20:	d103      	bne.n	8000e2a <W6100_ReceiveData+0x2e>
		W6100_PassiveCloseSocket(sck_nbr);
 8000e22:	7bfb      	ldrb	r3, [r7, #15]
 8000e24:	4618      	mov	r0, r3
 8000e26:	f000 f997 	bl	8001158 <W6100_PassiveCloseSocket>
	}

	if ((SPI_W6100_RSOCK(Sn_IR, sck_nbr, REG) & 0b00000100) == 0x04) {					// Check if data received
 8000e2a:	7bfb      	ldrb	r3, [r7, #15]
 8000e2c:	2201      	movs	r2, #1
 8000e2e:	4619      	mov	r1, r3
 8000e30:	2020      	movs	r0, #32
 8000e32:	f7ff fd34 	bl	800089e <SPI_W6100_RSOCK>
 8000e36:	4603      	mov	r3, r0
 8000e38:	f003 0304 	and.w	r3, r3, #4
 8000e3c:	2b04      	cmp	r3, #4
 8000e3e:	f040 80a7 	bne.w	8000f90 <W6100_ReceiveData+0x194>

			// Clear data interrupt
			SPI_W6100_WSOCK(Sn_IRCLR, 0x04, sck_nbr, REG);
 8000e42:	7bfa      	ldrb	r2, [r7, #15]
 8000e44:	2301      	movs	r3, #1
 8000e46:	2104      	movs	r1, #4
 8000e48:	2028      	movs	r0, #40	; 0x28
 8000e4a:	f7ff fd63 	bl	8000914 <SPI_W6100_WSOCK>

			// Read data from the buffer
			get_size = (SPI_W6100_RSOCK(Sn_RX_RSR0, sck_nbr, REG) << 8);
 8000e4e:	7bfb      	ldrb	r3, [r7, #15]
 8000e50:	2201      	movs	r2, #1
 8000e52:	4619      	mov	r1, r3
 8000e54:	f44f 7009 	mov.w	r0, #548	; 0x224
 8000e58:	f7ff fd21 	bl	800089e <SPI_W6100_RSOCK>
 8000e5c:	4603      	mov	r3, r0
 8000e5e:	021b      	lsls	r3, r3, #8
 8000e60:	623b      	str	r3, [r7, #32]
			get_size |= SPI_W6100_RSOCK(Sn_RX_RSR1, sck_nbr, REG);
 8000e62:	7bfb      	ldrb	r3, [r7, #15]
 8000e64:	2201      	movs	r2, #1
 8000e66:	4619      	mov	r1, r3
 8000e68:	f240 2025 	movw	r0, #549	; 0x225
 8000e6c:	f7ff fd17 	bl	800089e <SPI_W6100_RSOCK>
 8000e70:	4603      	mov	r3, r0
 8000e72:	461a      	mov	r2, r3
 8000e74:	6a3b      	ldr	r3, [r7, #32]
 8000e76:	4313      	orrs	r3, r2
 8000e78:	623b      	str	r3, [r7, #32]
			gSn_RX_MAX = (SPI_W6100_RSOCK(Sn_RX_BSR, sck_nbr, REG) * 1024);
 8000e7a:	7bfb      	ldrb	r3, [r7, #15]
 8000e7c:	2201      	movs	r2, #1
 8000e7e:	4619      	mov	r1, r3
 8000e80:	f44f 7008 	mov.w	r0, #544	; 0x220
 8000e84:	f7ff fd0b 	bl	800089e <SPI_W6100_RSOCK>
 8000e88:	4603      	mov	r3, r0
 8000e8a:	029b      	lsls	r3, r3, #10
 8000e8c:	61fb      	str	r3, [r7, #28]
			get_start_address = (SPI_W6100_RSOCK(Sn_RX_RD0, sck_nbr, REG) << 8);
 8000e8e:	7bfb      	ldrb	r3, [r7, #15]
 8000e90:	2201      	movs	r2, #1
 8000e92:	4619      	mov	r1, r3
 8000e94:	f44f 700a 	mov.w	r0, #552	; 0x228
 8000e98:	f7ff fd01 	bl	800089e <SPI_W6100_RSOCK>
 8000e9c:	4603      	mov	r3, r0
 8000e9e:	021b      	lsls	r3, r3, #8
 8000ea0:	617b      	str	r3, [r7, #20]
			get_start_address |= SPI_W6100_RSOCK(Sn_RX_RD1, sck_nbr, REG);
 8000ea2:	7bfb      	ldrb	r3, [r7, #15]
 8000ea4:	2201      	movs	r2, #1
 8000ea6:	4619      	mov	r1, r3
 8000ea8:	f240 2029 	movw	r0, #553	; 0x229
 8000eac:	f7ff fcf7 	bl	800089e <SPI_W6100_RSOCK>
 8000eb0:	4603      	mov	r3, r0
 8000eb2:	461a      	mov	r2, r3
 8000eb4:	697b      	ldr	r3, [r7, #20]
 8000eb6:	4313      	orrs	r3, r2
 8000eb8:	617b      	str	r3, [r7, #20]

			// Move data to the array
			memset(tab, '\0', size);
 8000eba:	7bbb      	ldrb	r3, [r7, #14]
 8000ebc:	461a      	mov	r2, r3
 8000ebe:	2100      	movs	r1, #0
 8000ec0:	6878      	ldr	r0, [r7, #4]
 8000ec2:	f000 f9fc 	bl	80012be <memset>
			for (i=0; i<get_size; i++) {
 8000ec6:	2300      	movs	r3, #0
 8000ec8:	f887 3027 	strb.w	r3, [r7, #39]	; 0x27
 8000ecc:	e016      	b.n	8000efc <W6100_ReceiveData+0x100>
				tab[i] = SPI_W6100_RSOCK((get_start_address+i), sck_nbr, RX_BUF);
 8000ece:	f897 3027 	ldrb.w	r3, [r7, #39]	; 0x27
 8000ed2:	b29a      	uxth	r2, r3
 8000ed4:	697b      	ldr	r3, [r7, #20]
 8000ed6:	b29b      	uxth	r3, r3
 8000ed8:	4413      	add	r3, r2
 8000eda:	b298      	uxth	r0, r3
 8000edc:	f897 3027 	ldrb.w	r3, [r7, #39]	; 0x27
 8000ee0:	687a      	ldr	r2, [r7, #4]
 8000ee2:	18d4      	adds	r4, r2, r3
 8000ee4:	7bfb      	ldrb	r3, [r7, #15]
 8000ee6:	2203      	movs	r2, #3
 8000ee8:	4619      	mov	r1, r3
 8000eea:	f7ff fcd8 	bl	800089e <SPI_W6100_RSOCK>
 8000eee:	4603      	mov	r3, r0
 8000ef0:	7023      	strb	r3, [r4, #0]
			for (i=0; i<get_size; i++) {
 8000ef2:	f897 3027 	ldrb.w	r3, [r7, #39]	; 0x27
 8000ef6:	3301      	adds	r3, #1
 8000ef8:	f887 3027 	strb.w	r3, [r7, #39]	; 0x27
 8000efc:	f897 3027 	ldrb.w	r3, [r7, #39]	; 0x27
 8000f00:	6a3a      	ldr	r2, [r7, #32]
 8000f02:	429a      	cmp	r2, r3
 8000f04:	d8e3      	bhi.n	8000ece <W6100_ReceiveData+0xd2>
			}

			memcpy(&get_start_address, &dest_adr, get_size);
 8000f06:	f107 0108 	add.w	r1, r7, #8
 8000f0a:	f107 0314 	add.w	r3, r7, #20
 8000f0e:	6a3a      	ldr	r2, [r7, #32]
 8000f10:	4618      	mov	r0, r3
 8000f12:	f000 f9c9 	bl	80012a8 <memcpy>

			Sn_RX_RD_temp = (SPI_W6100_RSOCK(Sn_RX_RD0, sck_nbr, REG) << 8);
 8000f16:	7bfb      	ldrb	r3, [r7, #15]
 8000f18:	2201      	movs	r2, #1
 8000f1a:	4619      	mov	r1, r3
 8000f1c:	f44f 700a 	mov.w	r0, #552	; 0x228
 8000f20:	f7ff fcbd 	bl	800089e <SPI_W6100_RSOCK>
 8000f24:	4603      	mov	r3, r0
 8000f26:	021b      	lsls	r3, r3, #8
 8000f28:	61bb      	str	r3, [r7, #24]
			Sn_RX_RD_temp |= SPI_W6100_RSOCK(Sn_RX_RD1, sck_nbr, REG);
 8000f2a:	7bfb      	ldrb	r3, [r7, #15]
 8000f2c:	2201      	movs	r2, #1
 8000f2e:	4619      	mov	r1, r3
 8000f30:	f240 2029 	movw	r0, #553	; 0x229
 8000f34:	f7ff fcb3 	bl	800089e <SPI_W6100_RSOCK>
 8000f38:	4603      	mov	r3, r0
 8000f3a:	461a      	mov	r2, r3
 8000f3c:	69bb      	ldr	r3, [r7, #24]
 8000f3e:	4313      	orrs	r3, r2
 8000f40:	61bb      	str	r3, [r7, #24]
			Sn_RX_RD_temp += get_size;
 8000f42:	69ba      	ldr	r2, [r7, #24]
 8000f44:	6a3b      	ldr	r3, [r7, #32]
 8000f46:	4413      	add	r3, r2
 8000f48:	61bb      	str	r3, [r7, #24]
			SPI_W6100_WSOCK(Sn_RX_RD0, (Sn_RX_RD_temp>>8), sck_nbr, REG);
 8000f4a:	69bb      	ldr	r3, [r7, #24]
 8000f4c:	0a1b      	lsrs	r3, r3, #8
 8000f4e:	b2d9      	uxtb	r1, r3
 8000f50:	7bfa      	ldrb	r2, [r7, #15]
 8000f52:	2301      	movs	r3, #1
 8000f54:	f44f 700a 	mov.w	r0, #552	; 0x228
 8000f58:	f7ff fcdc 	bl	8000914 <SPI_W6100_WSOCK>
			SPI_W6100_WSOCK(Sn_RX_RD1, (Sn_RX_RD_temp), sck_nbr, REG);
 8000f5c:	69bb      	ldr	r3, [r7, #24]
 8000f5e:	b2d9      	uxtb	r1, r3
 8000f60:	7bfa      	ldrb	r2, [r7, #15]
 8000f62:	2301      	movs	r3, #1
 8000f64:	f240 2029 	movw	r0, #553	; 0x229
 8000f68:	f7ff fcd4 	bl	8000914 <SPI_W6100_WSOCK>
			SPI_W6100_WSOCK(Sn_CR, 0x40, sck_nbr, REG);
 8000f6c:	7bfa      	ldrb	r2, [r7, #15]
 8000f6e:	2301      	movs	r3, #1
 8000f70:	2140      	movs	r1, #64	; 0x40
 8000f72:	2010      	movs	r0, #16
 8000f74:	f7ff fcce 	bl	8000914 <SPI_W6100_WSOCK>
			while((SPI_W6100_RSOCK(Sn_CR, sck_nbr, REG)) != 0x00);
 8000f78:	bf00      	nop
 8000f7a:	7bfb      	ldrb	r3, [r7, #15]
 8000f7c:	2201      	movs	r2, #1
 8000f7e:	4619      	mov	r1, r3
 8000f80:	2010      	movs	r0, #16
 8000f82:	f7ff fc8c 	bl	800089e <SPI_W6100_RSOCK>
 8000f86:	4603      	mov	r3, r0
 8000f88:	2b00      	cmp	r3, #0
 8000f8a:	d1f6      	bne.n	8000f7a <W6100_ReceiveData+0x17e>

			return 1;	// Return 1 if data was received
 8000f8c:	2301      	movs	r3, #1
 8000f8e:	e000      	b.n	8000f92 <W6100_ReceiveData+0x196>
	}
	else 	return 0;	// Return 0 of no data was received
 8000f90:	2300      	movs	r3, #0
}
 8000f92:	4618      	mov	r0, r3
 8000f94:	372c      	adds	r7, #44	; 0x2c
 8000f96:	46bd      	mov	sp, r7
 8000f98:	bd90      	pop	{r4, r7, pc}

08000f9a <W6100_TransmitData>:

void W6100_TransmitData(uint8_t sck_nbr, uint32_t dest_adr, uint8_t * tab, uint8_t size) {
 8000f9a:	b580      	push	{r7, lr}
 8000f9c:	b08a      	sub	sp, #40	; 0x28
 8000f9e:	af00      	add	r7, sp, #0
 8000fa0:	60b9      	str	r1, [r7, #8]
 8000fa2:	607a      	str	r2, [r7, #4]
 8000fa4:	461a      	mov	r2, r3
 8000fa6:	4603      	mov	r3, r0
 8000fa8:	73fb      	strb	r3, [r7, #15]
 8000faa:	4613      	mov	r3, r2
 8000fac:	73bb      	strb	r3, [r7, #14]
	uint8_t i;
	uint8_t send_size = size;
 8000fae:	7bbb      	ldrb	r3, [r7, #14]
 8000fb0:	f887 3026 	strb.w	r3, [r7, #38]	; 0x26
	uint32_t gSn_TX_MAX, get_start_address, Sn_TX_WR_temp, Sn_TX_FSR_temp;

	gSn_TX_MAX = (SPI_W6100_RSOCK(Sn_TX_BSR, sck_nbr, REG) * 1024);						// Socket TX buffer size
 8000fb4:	7bfb      	ldrb	r3, [r7, #15]
 8000fb6:	2201      	movs	r2, #1
 8000fb8:	4619      	mov	r1, r3
 8000fba:	f44f 7000 	mov.w	r0, #512	; 0x200
 8000fbe:	f7ff fc6e 	bl	800089e <SPI_W6100_RSOCK>
 8000fc2:	4603      	mov	r3, r0
 8000fc4:	029b      	lsls	r3, r3, #10
 8000fc6:	61fb      	str	r3, [r7, #28]

	if(send_size > gSn_TX_MAX) send_size = gSn_TX_MAX;
 8000fc8:	f897 3026 	ldrb.w	r3, [r7, #38]	; 0x26
 8000fcc:	69fa      	ldr	r2, [r7, #28]
 8000fce:	429a      	cmp	r2, r3
 8000fd0:	d219      	bcs.n	8001006 <W6100_TransmitData+0x6c>
 8000fd2:	69fb      	ldr	r3, [r7, #28]
 8000fd4:	f887 3026 	strb.w	r3, [r7, #38]	; 0x26


	while(send_size > Sn_TX_FSR_temp) {													// wait until Socket Tx buffer is free
 8000fd8:	e015      	b.n	8001006 <W6100_TransmitData+0x6c>
		Sn_TX_FSR_temp = (SPI_W6100_RSOCK(Sn_TX_FSR0, sck_nbr, REG) << 8);
 8000fda:	7bfb      	ldrb	r3, [r7, #15]
 8000fdc:	2201      	movs	r2, #1
 8000fde:	4619      	mov	r1, r3
 8000fe0:	f44f 7001 	mov.w	r0, #516	; 0x204
 8000fe4:	f7ff fc5b 	bl	800089e <SPI_W6100_RSOCK>
 8000fe8:	4603      	mov	r3, r0
 8000fea:	021b      	lsls	r3, r3, #8
 8000fec:	623b      	str	r3, [r7, #32]
		Sn_TX_FSR_temp |= SPI_W6100_RSOCK(Sn_TX_FSR1, sck_nbr, REG);
 8000fee:	7bfb      	ldrb	r3, [r7, #15]
 8000ff0:	2201      	movs	r2, #1
 8000ff2:	4619      	mov	r1, r3
 8000ff4:	f240 2005 	movw	r0, #517	; 0x205
 8000ff8:	f7ff fc51 	bl	800089e <SPI_W6100_RSOCK>
 8000ffc:	4603      	mov	r3, r0
 8000ffe:	461a      	mov	r2, r3
 8001000:	6a3b      	ldr	r3, [r7, #32]
 8001002:	4313      	orrs	r3, r2
 8001004:	623b      	str	r3, [r7, #32]
	while(send_size > Sn_TX_FSR_temp) {													// wait until Socket Tx buffer is free
 8001006:	f897 3026 	ldrb.w	r3, [r7, #38]	; 0x26
 800100a:	6a3a      	ldr	r2, [r7, #32]
 800100c:	429a      	cmp	r2, r3
 800100e:	d3e4      	bcc.n	8000fda <W6100_TransmitData+0x40>
	}

	get_start_address = (SPI_W6100_RSOCK(Sn_TX_WR0, sck_nbr, REG) << 8);
 8001010:	7bfb      	ldrb	r3, [r7, #15]
 8001012:	2201      	movs	r2, #1
 8001014:	4619      	mov	r1, r3
 8001016:	f44f 7003 	mov.w	r0, #524	; 0x20c
 800101a:	f7ff fc40 	bl	800089e <SPI_W6100_RSOCK>
 800101e:	4603      	mov	r3, r0
 8001020:	021b      	lsls	r3, r3, #8
 8001022:	617b      	str	r3, [r7, #20]
	get_start_address |= SPI_W6100_RSOCK(Sn_TX_WR1, sck_nbr, REG);
 8001024:	7bfb      	ldrb	r3, [r7, #15]
 8001026:	2201      	movs	r2, #1
 8001028:	4619      	mov	r1, r3
 800102a:	f240 200d 	movw	r0, #525	; 0x20d
 800102e:	f7ff fc36 	bl	800089e <SPI_W6100_RSOCK>
 8001032:	4603      	mov	r3, r0
 8001034:	461a      	mov	r2, r3
 8001036:	697b      	ldr	r3, [r7, #20]
 8001038:	4313      	orrs	r3, r2
 800103a:	617b      	str	r3, [r7, #20]


	Sn_TX_WR_temp = (SPI_W6100_RSOCK(Sn_TX_WR0, sck_nbr, REG) << 8);
 800103c:	7bfb      	ldrb	r3, [r7, #15]
 800103e:	2201      	movs	r2, #1
 8001040:	4619      	mov	r1, r3
 8001042:	f44f 7003 	mov.w	r0, #524	; 0x20c
 8001046:	f7ff fc2a 	bl	800089e <SPI_W6100_RSOCK>
 800104a:	4603      	mov	r3, r0
 800104c:	021b      	lsls	r3, r3, #8
 800104e:	61bb      	str	r3, [r7, #24]
	Sn_TX_WR_temp |= SPI_W6100_RSOCK(Sn_TX_WR1, sck_nbr, REG);
 8001050:	7bfb      	ldrb	r3, [r7, #15]
 8001052:	2201      	movs	r2, #1
 8001054:	4619      	mov	r1, r3
 8001056:	f240 200d 	movw	r0, #525	; 0x20d
 800105a:	f7ff fc20 	bl	800089e <SPI_W6100_RSOCK>
 800105e:	4603      	mov	r3, r0
 8001060:	461a      	mov	r2, r3
 8001062:	69bb      	ldr	r3, [r7, #24]
 8001064:	4313      	orrs	r3, r2
 8001066:	61bb      	str	r3, [r7, #24]
	Sn_TX_WR_temp += size;
 8001068:	7bbb      	ldrb	r3, [r7, #14]
 800106a:	69ba      	ldr	r2, [r7, #24]
 800106c:	4413      	add	r3, r2
 800106e:	61bb      	str	r3, [r7, #24]
	SPI_W6100_WSOCK(Sn_TX_WR0, (Sn_TX_WR_temp>>8), sck_nbr, REG);
 8001070:	69bb      	ldr	r3, [r7, #24]
 8001072:	0a1b      	lsrs	r3, r3, #8
 8001074:	b2d9      	uxtb	r1, r3
 8001076:	7bfa      	ldrb	r2, [r7, #15]
 8001078:	2301      	movs	r3, #1
 800107a:	f44f 7003 	mov.w	r0, #524	; 0x20c
 800107e:	f7ff fc49 	bl	8000914 <SPI_W6100_WSOCK>
	SPI_W6100_WSOCK(Sn_TX_WR1, (Sn_TX_WR_temp), sck_nbr, REG);
 8001082:	69bb      	ldr	r3, [r7, #24]
 8001084:	b2d9      	uxtb	r1, r3
 8001086:	7bfa      	ldrb	r2, [r7, #15]
 8001088:	2301      	movs	r3, #1
 800108a:	f240 200d 	movw	r0, #525	; 0x20d
 800108e:	f7ff fc41 	bl	8000914 <SPI_W6100_WSOCK>

	// Move data to the array
	for (i=0; i<size; i++) {
 8001092:	2300      	movs	r3, #0
 8001094:	f887 3027 	strb.w	r3, [r7, #39]	; 0x27
 8001098:	e014      	b.n	80010c4 <W6100_TransmitData+0x12a>
		SPI_W6100_WSOCK((get_start_address+i), tab[i], sck_nbr, TX_BUF);
 800109a:	f897 3027 	ldrb.w	r3, [r7, #39]	; 0x27
 800109e:	b29a      	uxth	r2, r3
 80010a0:	697b      	ldr	r3, [r7, #20]
 80010a2:	b29b      	uxth	r3, r3
 80010a4:	4413      	add	r3, r2
 80010a6:	b298      	uxth	r0, r3
 80010a8:	f897 3027 	ldrb.w	r3, [r7, #39]	; 0x27
 80010ac:	687a      	ldr	r2, [r7, #4]
 80010ae:	4413      	add	r3, r2
 80010b0:	7819      	ldrb	r1, [r3, #0]
 80010b2:	7bfa      	ldrb	r2, [r7, #15]
 80010b4:	2302      	movs	r3, #2
 80010b6:	f7ff fc2d 	bl	8000914 <SPI_W6100_WSOCK>
	for (i=0; i<size; i++) {
 80010ba:	f897 3027 	ldrb.w	r3, [r7, #39]	; 0x27
 80010be:	3301      	adds	r3, #1
 80010c0:	f887 3027 	strb.w	r3, [r7, #39]	; 0x27
 80010c4:	f897 2027 	ldrb.w	r2, [r7, #39]	; 0x27
 80010c8:	7bbb      	ldrb	r3, [r7, #14]
 80010ca:	429a      	cmp	r2, r3
 80010cc:	d3e5      	bcc.n	800109a <W6100_TransmitData+0x100>
	}

	memcpy(&get_start_address, &dest_adr, send_size);
 80010ce:	f897 2026 	ldrb.w	r2, [r7, #38]	; 0x26
 80010d2:	f107 0108 	add.w	r1, r7, #8
 80010d6:	f107 0314 	add.w	r3, r7, #20
 80010da:	4618      	mov	r0, r3
 80010dc:	f000 f8e4 	bl	80012a8 <memcpy>

	SPI_W6100_WSOCK(Sn_CR, 0x20, sck_nbr, REG);											// SEND command sent to TCP/TCP6 mode
 80010e0:	7bfa      	ldrb	r2, [r7, #15]
 80010e2:	2301      	movs	r3, #1
 80010e4:	2120      	movs	r1, #32
 80010e6:	2010      	movs	r0, #16
 80010e8:	f7ff fc14 	bl	8000914 <SPI_W6100_WSOCK>
	while(SPI_W6100_RSOCK(Sn_CR, sck_nbr, REG) != 0x00);								// Wait for SEND command clear
 80010ec:	bf00      	nop
 80010ee:	7bfb      	ldrb	r3, [r7, #15]
 80010f0:	2201      	movs	r2, #1
 80010f2:	4619      	mov	r1, r3
 80010f4:	2010      	movs	r0, #16
 80010f6:	f7ff fbd2 	bl	800089e <SPI_W6100_RSOCK>
 80010fa:	4603      	mov	r3, r0
 80010fc:	2b00      	cmp	r3, #0
 80010fe:	d1f6      	bne.n	80010ee <W6100_TransmitData+0x154>

	while(((SPI_W6100_RSOCK(Sn_IR, sck_nbr, REG) & 0x10) == 0) && ((SPI_W6100_RSOCK(Sn_IR, sck_nbr, REG) & 0x08) == 0));
 8001100:	bf00      	nop
 8001102:	7bfb      	ldrb	r3, [r7, #15]
 8001104:	2201      	movs	r2, #1
 8001106:	4619      	mov	r1, r3
 8001108:	2020      	movs	r0, #32
 800110a:	f7ff fbc8 	bl	800089e <SPI_W6100_RSOCK>
 800110e:	4603      	mov	r3, r0
 8001110:	f003 0310 	and.w	r3, r3, #16
 8001114:	2b00      	cmp	r3, #0
 8001116:	d10a      	bne.n	800112e <W6100_TransmitData+0x194>
 8001118:	7bfb      	ldrb	r3, [r7, #15]
 800111a:	2201      	movs	r2, #1
 800111c:	4619      	mov	r1, r3
 800111e:	2020      	movs	r0, #32
 8001120:	f7ff fbbd 	bl	800089e <SPI_W6100_RSOCK>
 8001124:	4603      	mov	r3, r0
 8001126:	f003 0308 	and.w	r3, r3, #8
 800112a:	2b00      	cmp	r3, #0
 800112c:	d0e9      	beq.n	8001102 <W6100_TransmitData+0x168>

	if((SPI_W6100_RSOCK(Sn_IR, sck_nbr, REG) & 0x10) == 0x10) SPI_W6100_WSOCK(Sn_IRCLR, 0x10, sck_nbr, REG);	// Clear SENDOK interrupt
 800112e:	7bfb      	ldrb	r3, [r7, #15]
 8001130:	2201      	movs	r2, #1
 8001132:	4619      	mov	r1, r3
 8001134:	2020      	movs	r0, #32
 8001136:	f7ff fbb2 	bl	800089e <SPI_W6100_RSOCK>
 800113a:	4603      	mov	r3, r0
 800113c:	f003 0310 	and.w	r3, r3, #16
 8001140:	2b10      	cmp	r3, #16
 8001142:	d105      	bne.n	8001150 <W6100_TransmitData+0x1b6>
 8001144:	7bfa      	ldrb	r2, [r7, #15]
 8001146:	2301      	movs	r3, #1
 8001148:	2110      	movs	r1, #16
 800114a:	2028      	movs	r0, #40	; 0x28
 800114c:	f7ff fbe2 	bl	8000914 <SPI_W6100_WSOCK>

}
 8001150:	bf00      	nop
 8001152:	3728      	adds	r7, #40	; 0x28
 8001154:	46bd      	mov	sp, r7
 8001156:	bd80      	pop	{r7, pc}

08001158 <W6100_PassiveCloseSocket>:



void W6100_PassiveCloseSocket(uint8_t sck_nbr) {
 8001158:	b580      	push	{r7, lr}
 800115a:	b082      	sub	sp, #8
 800115c:	af00      	add	r7, sp, #0
 800115e:	4603      	mov	r3, r0
 8001160:	71fb      	strb	r3, [r7, #7]
	SPI_W6100_WSOCK(Sn_CR, 0x08, sck_nbr, REG);						// Send FIN packet (DISCON command)
 8001162:	79fa      	ldrb	r2, [r7, #7]
 8001164:	2301      	movs	r3, #1
 8001166:	2108      	movs	r1, #8
 8001168:	2010      	movs	r0, #16
 800116a:	f7ff fbd3 	bl	8000914 <SPI_W6100_WSOCK>
	while((SPI_W6100_RSOCK(Sn_CR, sck_nbr, REG)) != 0x00);			// Wait for DISCON command clear
 800116e:	bf00      	nop
 8001170:	79fb      	ldrb	r3, [r7, #7]
 8001172:	2201      	movs	r2, #1
 8001174:	4619      	mov	r1, r3
 8001176:	2010      	movs	r0, #16
 8001178:	f7ff fb91 	bl	800089e <SPI_W6100_RSOCK>
 800117c:	4603      	mov	r3, r0
 800117e:	2b00      	cmp	r3, #0
 8001180:	d1f6      	bne.n	8001170 <W6100_PassiveCloseSocket+0x18>
	// Wait for ACK packet
	while((((SPI_W6100_RSOCK(Sn_IR, sck_nbr, REG)) & 0b10) == 0) && (((SPI_W6100_RSOCK(Sn_IR, sck_nbr, REG)) & 0b1000) == 0));
 8001182:	bf00      	nop
 8001184:	79fb      	ldrb	r3, [r7, #7]
 8001186:	2201      	movs	r2, #1
 8001188:	4619      	mov	r1, r3
 800118a:	2020      	movs	r0, #32
 800118c:	f7ff fb87 	bl	800089e <SPI_W6100_RSOCK>
 8001190:	4603      	mov	r3, r0
 8001192:	f003 0302 	and.w	r3, r3, #2
 8001196:	2b00      	cmp	r3, #0
 8001198:	d10a      	bne.n	80011b0 <W6100_PassiveCloseSocket+0x58>
 800119a:	79fb      	ldrb	r3, [r7, #7]
 800119c:	2201      	movs	r2, #1
 800119e:	4619      	mov	r1, r3
 80011a0:	2020      	movs	r0, #32
 80011a2:	f7ff fb7c 	bl	800089e <SPI_W6100_RSOCK>
 80011a6:	4603      	mov	r3, r0
 80011a8:	f003 0308 	and.w	r3, r3, #8
 80011ac:	2b00      	cmp	r3, #0
 80011ae:	d0e9      	beq.n	8001184 <W6100_PassiveCloseSocket+0x2c>

	if ((((SPI_W6100_RSOCK(Sn_IR, sck_nbr, REG)) & 0b10) == 0b10)) {
 80011b0:	79fb      	ldrb	r3, [r7, #7]
 80011b2:	2201      	movs	r2, #1
 80011b4:	4619      	mov	r1, r3
 80011b6:	2020      	movs	r0, #32
 80011b8:	f7ff fb71 	bl	800089e <SPI_W6100_RSOCK>
 80011bc:	4603      	mov	r3, r0
 80011be:	f003 0302 	and.w	r3, r3, #2
 80011c2:	2b02      	cmp	r3, #2
 80011c4:	d10f      	bne.n	80011e6 <W6100_PassiveCloseSocket+0x8e>
		SPI_W6100_WSOCK(Sn_IRCLR, 0x02, sck_nbr, REG);				// Clear DISCON interrupt
 80011c6:	79fa      	ldrb	r2, [r7, #7]
 80011c8:	2301      	movs	r3, #1
 80011ca:	2102      	movs	r1, #2
 80011cc:	2028      	movs	r0, #40	; 0x28
 80011ce:	f7ff fba1 	bl	8000914 <SPI_W6100_WSOCK>
		while((SPI_W6100_RSOCK(Sn_SR, sck_nbr, REG)) != 0x00);		// Wait until socket is CLOSED
 80011d2:	bf00      	nop
 80011d4:	79fb      	ldrb	r3, [r7, #7]
 80011d6:	2201      	movs	r2, #1
 80011d8:	4619      	mov	r1, r3
 80011da:	2030      	movs	r0, #48	; 0x30
 80011dc:	f7ff fb5f 	bl	800089e <SPI_W6100_RSOCK>
 80011e0:	4603      	mov	r3, r0
 80011e2:	2b00      	cmp	r3, #0
 80011e4:	d1f6      	bne.n	80011d4 <W6100_PassiveCloseSocket+0x7c>
	}
	/* HARDWARE RESPONSE ON THE SOCKET CLOSE */
	GPIOC->ODR |= GPIO_ODR_OD8;
 80011e6:	4b08      	ldr	r3, [pc, #32]	; (8001208 <W6100_PassiveCloseSocket+0xb0>)
 80011e8:	695b      	ldr	r3, [r3, #20]
 80011ea:	4a07      	ldr	r2, [pc, #28]	; (8001208 <W6100_PassiveCloseSocket+0xb0>)
 80011ec:	f443 7380 	orr.w	r3, r3, #256	; 0x100
 80011f0:	6153      	str	r3, [r2, #20]
	GPIOC->ODR &= ~GPIO_ODR_OD9;
 80011f2:	4b05      	ldr	r3, [pc, #20]	; (8001208 <W6100_PassiveCloseSocket+0xb0>)
 80011f4:	695b      	ldr	r3, [r3, #20]
 80011f6:	4a04      	ldr	r2, [pc, #16]	; (8001208 <W6100_PassiveCloseSocket+0xb0>)
 80011f8:	f423 7300 	bic.w	r3, r3, #512	; 0x200
 80011fc:	6153      	str	r3, [r2, #20]
	/* END OF HARDWARE RESPONSE */
}
 80011fe:	bf00      	nop
 8001200:	3708      	adds	r7, #8
 8001202:	46bd      	mov	sp, r7
 8001204:	bd80      	pop	{r7, pc}
 8001206:	bf00      	nop
 8001208:	40020800 	.word	0x40020800

0800120c <Reset_Handler>:

    .section  .text.Reset_Handler
  .weak  Reset_Handler
  .type  Reset_Handler, %function
Reset_Handler:  
  ldr   sp, =_estack     /* set stack pointer */
 800120c:	f8df d034 	ldr.w	sp, [pc, #52]	; 8001244 <LoopFillZerobss+0x14>

/* Copy the data segment initializers from flash to SRAM */  
  movs  r1, #0
 8001210:	2100      	movs	r1, #0
  b  LoopCopyDataInit
 8001212:	e003      	b.n	800121c <LoopCopyDataInit>

08001214 <CopyDataInit>:

CopyDataInit:
  ldr  r3, =_sidata
 8001214:	4b0c      	ldr	r3, [pc, #48]	; (8001248 <LoopFillZerobss+0x18>)
  ldr  r3, [r3, r1]
 8001216:	585b      	ldr	r3, [r3, r1]
  str  r3, [r0, r1]
 8001218:	5043      	str	r3, [r0, r1]
  adds  r1, r1, #4
 800121a:	3104      	adds	r1, #4

0800121c <LoopCopyDataInit>:
    
LoopCopyDataInit:
  ldr  r0, =_sdata
 800121c:	480b      	ldr	r0, [pc, #44]	; (800124c <LoopFillZerobss+0x1c>)
  ldr  r3, =_edata
 800121e:	4b0c      	ldr	r3, [pc, #48]	; (8001250 <LoopFillZerobss+0x20>)
  adds  r2, r0, r1
 8001220:	1842      	adds	r2, r0, r1
  cmp  r2, r3
 8001222:	429a      	cmp	r2, r3
  bcc  CopyDataInit
 8001224:	d3f6      	bcc.n	8001214 <CopyDataInit>
  ldr  r2, =_sbss
 8001226:	4a0b      	ldr	r2, [pc, #44]	; (8001254 <LoopFillZerobss+0x24>)
  b  LoopFillZerobss
 8001228:	e002      	b.n	8001230 <LoopFillZerobss>

0800122a <FillZerobss>:
/* Zero fill the bss segment. */  
FillZerobss:
  movs  r3, #0
 800122a:	2300      	movs	r3, #0
  str  r3, [r2], #4
 800122c:	f842 3b04 	str.w	r3, [r2], #4

08001230 <LoopFillZerobss>:
    
LoopFillZerobss:
  ldr  r3, = _ebss
 8001230:	4b09      	ldr	r3, [pc, #36]	; (8001258 <LoopFillZerobss+0x28>)
  cmp  r2, r3
 8001232:	429a      	cmp	r2, r3
  bcc  FillZerobss
 8001234:	d3f9      	bcc.n	800122a <FillZerobss>

/* Call the clock system intitialization function.*/
  bl  SystemInit   
 8001236:	f7ff fab5 	bl	80007a4 <SystemInit>
/* Call static constructors */
    bl __libc_init_array
 800123a:	f000 f811 	bl	8001260 <__libc_init_array>
/* Call the application's entry point.*/
  bl  main
 800123e:	f7ff f9f1 	bl	8000624 <main>
  bx  lr    
 8001242:	4770      	bx	lr
  ldr   sp, =_estack     /* set stack pointer */
 8001244:	20020000 	.word	0x20020000
  ldr  r3, =_sidata
 8001248:	08001330 	.word	0x08001330
  ldr  r0, =_sdata
 800124c:	20000000 	.word	0x20000000
  ldr  r3, =_edata
 8001250:	20000000 	.word	0x20000000
  ldr  r2, =_sbss
 8001254:	20000000 	.word	0x20000000
  ldr  r3, = _ebss
 8001258:	20000034 	.word	0x20000034

0800125c <ADC_IRQHandler>:
 * @retval None       
*/
    .section  .text.Default_Handler,"ax",%progbits
Default_Handler:
Infinite_Loop:
  b  Infinite_Loop
 800125c:	e7fe      	b.n	800125c <ADC_IRQHandler>
	...

08001260 <__libc_init_array>:
 8001260:	b570      	push	{r4, r5, r6, lr}
 8001262:	4e0d      	ldr	r6, [pc, #52]	; (8001298 <__libc_init_array+0x38>)
 8001264:	4c0d      	ldr	r4, [pc, #52]	; (800129c <__libc_init_array+0x3c>)
 8001266:	1ba4      	subs	r4, r4, r6
 8001268:	10a4      	asrs	r4, r4, #2
 800126a:	2500      	movs	r5, #0
 800126c:	42a5      	cmp	r5, r4
 800126e:	d109      	bne.n	8001284 <__libc_init_array+0x24>
 8001270:	4e0b      	ldr	r6, [pc, #44]	; (80012a0 <__libc_init_array+0x40>)
 8001272:	4c0c      	ldr	r4, [pc, #48]	; (80012a4 <__libc_init_array+0x44>)
 8001274:	f000 f82c 	bl	80012d0 <_init>
 8001278:	1ba4      	subs	r4, r4, r6
 800127a:	10a4      	asrs	r4, r4, #2
 800127c:	2500      	movs	r5, #0
 800127e:	42a5      	cmp	r5, r4
 8001280:	d105      	bne.n	800128e <__libc_init_array+0x2e>
 8001282:	bd70      	pop	{r4, r5, r6, pc}
 8001284:	f856 3025 	ldr.w	r3, [r6, r5, lsl #2]
 8001288:	4798      	blx	r3
 800128a:	3501      	adds	r5, #1
 800128c:	e7ee      	b.n	800126c <__libc_init_array+0xc>
 800128e:	f856 3025 	ldr.w	r3, [r6, r5, lsl #2]
 8001292:	4798      	blx	r3
 8001294:	3501      	adds	r5, #1
 8001296:	e7f2      	b.n	800127e <__libc_init_array+0x1e>
 8001298:	08001328 	.word	0x08001328
 800129c:	08001328 	.word	0x08001328
 80012a0:	08001328 	.word	0x08001328
 80012a4:	0800132c 	.word	0x0800132c

080012a8 <memcpy>:
 80012a8:	b510      	push	{r4, lr}
 80012aa:	1e43      	subs	r3, r0, #1
 80012ac:	440a      	add	r2, r1
 80012ae:	4291      	cmp	r1, r2
 80012b0:	d100      	bne.n	80012b4 <memcpy+0xc>
 80012b2:	bd10      	pop	{r4, pc}
 80012b4:	f811 4b01 	ldrb.w	r4, [r1], #1
 80012b8:	f803 4f01 	strb.w	r4, [r3, #1]!
 80012bc:	e7f7      	b.n	80012ae <memcpy+0x6>

080012be <memset>:
 80012be:	4402      	add	r2, r0
 80012c0:	4603      	mov	r3, r0
 80012c2:	4293      	cmp	r3, r2
 80012c4:	d100      	bne.n	80012c8 <memset+0xa>
 80012c6:	4770      	bx	lr
 80012c8:	f803 1b01 	strb.w	r1, [r3], #1
 80012cc:	e7f9      	b.n	80012c2 <memset+0x4>
	...

080012d0 <_init>:
 80012d0:	b5f8      	push	{r3, r4, r5, r6, r7, lr}
 80012d2:	bf00      	nop
 80012d4:	bcf8      	pop	{r3, r4, r5, r6, r7}
 80012d6:	bc08      	pop	{r3}
 80012d8:	469e      	mov	lr, r3
 80012da:	4770      	bx	lr

080012dc <_fini>:
 80012dc:	b5f8      	push	{r3, r4, r5, r6, r7, lr}
 80012de:	bf00      	nop
 80012e0:	bcf8      	pop	{r3, r4, r5, r6, r7}
 80012e2:	bc08      	pop	{r3}
 80012e4:	469e      	mov	lr, r3
 80012e6:	4770      	bx	lr
